
a.out:     file format elf64-x86-64


Disassembly of section .init:

0000000000403380 <_init>:
  403380:	48 83 ec 08          	sub    $0x8,%rsp
  403384:	48 8b 05 6d 5c 22 00 	mov    0x225c6d(%rip),%rax        # 628ff8 <_DYNAMIC+0x220>
  40338b:	48 85 c0             	test   %rax,%rax
  40338e:	74 05                	je     403395 <_init+0x15>
  403390:	e8 cb 02 00 00       	callq  403660 <__gmon_start__@plt>
  403395:	48 83 c4 08          	add    $0x8,%rsp
  403399:	c3                   	retq   

Disassembly of section .plt:

00000000004033a0 <_ZNKSt7__cxx1112basic_stringIcSt11char_traitsIcESaIcEE4findEPKcm@plt-0x10>:
  4033a0:	ff 35 62 5c 22 00    	pushq  0x225c62(%rip)        # 629008 <_GLOBAL_OFFSET_TABLE_+0x8>
  4033a6:	ff 25 64 5c 22 00    	jmpq   *0x225c64(%rip)        # 629010 <_GLOBAL_OFFSET_TABLE_+0x10>
  4033ac:	0f 1f 40 00          	nopl   0x0(%rax)

00000000004033b0 <_ZNKSt7__cxx1112basic_stringIcSt11char_traitsIcESaIcEE4findEPKcm@plt>:
  4033b0:	ff 25 62 5c 22 00    	jmpq   *0x225c62(%rip)        # 629018 <_GLOBAL_OFFSET_TABLE_+0x18>
  4033b6:	68 00 00 00 00       	pushq  $0x0
  4033bb:	e9 e0 ff ff ff       	jmpq   4033a0 <_init+0x20>

00000000004033c0 <_ZSt24__throw_out_of_range_fmtPKcz@plt>:
  4033c0:	ff 25 5a 5c 22 00    	jmpq   *0x225c5a(%rip)        # 629020 <_GLOBAL_OFFSET_TABLE_+0x20>
  4033c6:	68 01 00 00 00       	pushq  $0x1
  4033cb:	e9 d0 ff ff ff       	jmpq   4033a0 <_init+0x20>

00000000004033d0 <_ZNKSt9basic_iosIcSt11char_traitsIcEE4goodEv@plt>:
  4033d0:	ff 25 52 5c 22 00    	jmpq   *0x225c52(%rip)        # 629028 <_GLOBAL_OFFSET_TABLE_+0x28>
  4033d6:	68 02 00 00 00       	pushq  $0x2
  4033db:	e9 c0 ff ff ff       	jmpq   4033a0 <_init+0x20>

00000000004033e0 <__cxa_begin_catch@plt>:
  4033e0:	ff 25 4a 5c 22 00    	jmpq   *0x225c4a(%rip)        # 629030 <_GLOBAL_OFFSET_TABLE_+0x30>
  4033e6:	68 03 00 00 00       	pushq  $0x3
  4033eb:	e9 b0 ff ff ff       	jmpq   4033a0 <_init+0x20>

00000000004033f0 <memcpy@plt>:
  4033f0:	ff 25 42 5c 22 00    	jmpq   *0x225c42(%rip)        # 629038 <_GLOBAL_OFFSET_TABLE_+0x38>
  4033f6:	68 04 00 00 00       	pushq  $0x4
  4033fb:	e9 a0 ff ff ff       	jmpq   4033a0 <_init+0x20>

0000000000403400 <_ZSt17__throw_bad_allocv@plt>:
  403400:	ff 25 3a 5c 22 00    	jmpq   *0x225c3a(%rip)        # 629040 <_GLOBAL_OFFSET_TABLE_+0x40>
  403406:	68 05 00 00 00       	pushq  $0x5
  40340b:	e9 90 ff ff ff       	jmpq   4033a0 <_init+0x20>

0000000000403410 <_ZNSt7__cxx1112basic_stringIcSt11char_traitsIcESaIcEEpLERKS4_@plt>:
  403410:	ff 25 32 5c 22 00    	jmpq   *0x225c32(%rip)        # 629048 <_GLOBAL_OFFSET_TABLE_+0x48>
  403416:	68 06 00 00 00       	pushq  $0x6
  40341b:	e9 80 ff ff ff       	jmpq   4033a0 <_init+0x20>

0000000000403420 <realloc@plt>:
  403420:	ff 25 2a 5c 22 00    	jmpq   *0x225c2a(%rip)        # 629050 <_GLOBAL_OFFSET_TABLE_+0x50>
  403426:	68 07 00 00 00       	pushq  $0x7
  40342b:	e9 70 ff ff ff       	jmpq   4033a0 <_init+0x20>

0000000000403430 <_ZStlsIcSt11char_traitsIcEERSt13basic_ostreamIT_T0_ES6_St13_Setprecision@plt>:
  403430:	ff 25 22 5c 22 00    	jmpq   *0x225c22(%rip)        # 629058 <_GLOBAL_OFFSET_TABLE_+0x58>
  403436:	68 08 00 00 00       	pushq  $0x8
  40343b:	e9 60 ff ff ff       	jmpq   4033a0 <_init+0x20>

0000000000403440 <_ZNKSt7__cxx1112basic_stringIcSt11char_traitsIcESaIcEE7compareERKS4_@plt>:
  403440:	ff 25 1a 5c 22 00    	jmpq   *0x225c1a(%rip)        # 629060 <_GLOBAL_OFFSET_TABLE_+0x60>
  403446:	68 09 00 00 00       	pushq  $0x9
  40344b:	e9 50 ff ff ff       	jmpq   4033a0 <_init+0x20>

0000000000403450 <_ZNSt7__cxx1112basic_stringIcSt11char_traitsIcESaIcEE6insertEmRKS4_@plt>:
  403450:	ff 25 12 5c 22 00    	jmpq   *0x225c12(%rip)        # 629068 <_GLOBAL_OFFSET_TABLE_+0x68>
  403456:	68 0a 00 00 00       	pushq  $0xa
  40345b:	e9 40 ff ff ff       	jmpq   4033a0 <_init+0x20>

0000000000403460 <_ZNKSt7__cxx1112basic_stringIcSt11char_traitsIcESaIcEE5c_strEv@plt>:
  403460:	ff 25 0a 5c 22 00    	jmpq   *0x225c0a(%rip)        # 629070 <_GLOBAL_OFFSET_TABLE_+0x70>
  403466:	68 0b 00 00 00       	pushq  $0xb
  40346b:	e9 30 ff ff ff       	jmpq   4033a0 <_init+0x20>

0000000000403470 <curl_easy_perform@plt>:
  403470:	ff 25 02 5c 22 00    	jmpq   *0x225c02(%rip)        # 629078 <_GLOBAL_OFFSET_TABLE_+0x78>
  403476:	68 0c 00 00 00       	pushq  $0xc
  40347b:	e9 20 ff ff ff       	jmpq   4033a0 <_init+0x20>

0000000000403480 <_ZdlPvm@plt>:
  403480:	ff 25 fa 5b 22 00    	jmpq   *0x225bfa(%rip)        # 629080 <_GLOBAL_OFFSET_TABLE_+0x80>
  403486:	68 0d 00 00 00       	pushq  $0xd
  40348b:	e9 10 ff ff ff       	jmpq   4033a0 <_init+0x20>

0000000000403490 <curl_global_init@plt>:
  403490:	ff 25 f2 5b 22 00    	jmpq   *0x225bf2(%rip)        # 629088 <_GLOBAL_OFFSET_TABLE_+0x88>
  403496:	68 0e 00 00 00       	pushq  $0xe
  40349b:	e9 00 ff ff ff       	jmpq   4033a0 <_init+0x20>

00000000004034a0 <_ZNSt7__cxx1112basic_stringIcSt11char_traitsIcESaIcEEC1ERKS4_@plt>:
  4034a0:	ff 25 ea 5b 22 00    	jmpq   *0x225bea(%rip)        # 629090 <_GLOBAL_OFFSET_TABLE_+0x90>
  4034a6:	68 0f 00 00 00       	pushq  $0xf
  4034ab:	e9 f0 fe ff ff       	jmpq   4033a0 <_init+0x20>

00000000004034b0 <_ZNSi5tellgEv@plt>:
  4034b0:	ff 25 e2 5b 22 00    	jmpq   *0x225be2(%rip)        # 629098 <_GLOBAL_OFFSET_TABLE_+0x98>
  4034b6:	68 10 00 00 00       	pushq  $0x10
  4034bb:	e9 e0 fe ff ff       	jmpq   4033a0 <_init+0x20>

00000000004034c0 <_ZNSt7__cxx1112basic_stringIcSt11char_traitsIcESaIcEEpLEPKc@plt>:
  4034c0:	ff 25 da 5b 22 00    	jmpq   *0x225bda(%rip)        # 6290a0 <_GLOBAL_OFFSET_TABLE_+0xa0>
  4034c6:	68 11 00 00 00       	pushq  $0x11
  4034cb:	e9 d0 fe ff ff       	jmpq   4033a0 <_init+0x20>

00000000004034d0 <_ZNSt14basic_ofstreamIcSt11char_traitsIcEEC1ERKNSt7__cxx1112basic_stringIcS1_SaIcEEESt13_Ios_Openmode@plt>:
  4034d0:	ff 25 d2 5b 22 00    	jmpq   *0x225bd2(%rip)        # 6290a8 <_GLOBAL_OFFSET_TABLE_+0xa8>
  4034d6:	68 12 00 00 00       	pushq  $0x12
  4034db:	e9 c0 fe ff ff       	jmpq   4033a0 <_init+0x20>

00000000004034e0 <_Znwm@plt>:
  4034e0:	ff 25 ca 5b 22 00    	jmpq   *0x225bca(%rip)        # 6290b0 <_GLOBAL_OFFSET_TABLE_+0xb0>
  4034e6:	68 13 00 00 00       	pushq  $0x13
  4034eb:	e9 b0 fe ff ff       	jmpq   4033a0 <_init+0x20>

00000000004034f0 <memmove@plt>:
  4034f0:	ff 25 c2 5b 22 00    	jmpq   *0x225bc2(%rip)        # 6290b8 <_GLOBAL_OFFSET_TABLE_+0xb8>
  4034f6:	68 14 00 00 00       	pushq  $0x14
  4034fb:	e9 a0 fe ff ff       	jmpq   4033a0 <_init+0x20>

0000000000403500 <__assert_fail@plt>:
  403500:	ff 25 ba 5b 22 00    	jmpq   *0x225bba(%rip)        # 6290c0 <_GLOBAL_OFFSET_TABLE_+0xc0>
  403506:	68 15 00 00 00       	pushq  $0x15
  40350b:	e9 90 fe ff ff       	jmpq   4033a0 <_init+0x20>

0000000000403510 <free@plt>:
  403510:	ff 25 b2 5b 22 00    	jmpq   *0x225bb2(%rip)        # 6290c8 <_GLOBAL_OFFSET_TABLE_+0xc8>
  403516:	68 16 00 00 00       	pushq  $0x16
  40351b:	e9 80 fe ff ff       	jmpq   4033a0 <_init+0x20>

0000000000403520 <fprintf@plt>:
  403520:	ff 25 aa 5b 22 00    	jmpq   *0x225baa(%rip)        # 6290d0 <_GLOBAL_OFFSET_TABLE_+0xd0>
  403526:	68 17 00 00 00       	pushq  $0x17
  40352b:	e9 70 fe ff ff       	jmpq   4033a0 <_init+0x20>

0000000000403530 <_ZNKSt13runtime_error4whatEv@plt>:
  403530:	ff 25 a2 5b 22 00    	jmpq   *0x225ba2(%rip)        # 6290d8 <_GLOBAL_OFFSET_TABLE_+0xd8>
  403536:	68 18 00 00 00       	pushq  $0x18
  40353b:	e9 60 fe ff ff       	jmpq   4033a0 <_init+0x20>

0000000000403540 <_ZNKSt7__cxx1112basic_stringIcSt11char_traitsIcESaIcEE8capacityEv@plt>:
  403540:	ff 25 9a 5b 22 00    	jmpq   *0x225b9a(%rip)        # 6290e0 <_GLOBAL_OFFSET_TABLE_+0xe0>
  403546:	68 19 00 00 00       	pushq  $0x19
  40354b:	e9 50 fe ff ff       	jmpq   4033a0 <_init+0x20>

0000000000403550 <_ZNKSt7__cxx1112basic_stringIcSt11char_traitsIcESaIcEE5beginEv@plt>:
  403550:	ff 25 92 5b 22 00    	jmpq   *0x225b92(%rip)        # 6290e8 <_GLOBAL_OFFSET_TABLE_+0xe8>
  403556:	68 1a 00 00 00       	pushq  $0x1a
  40355b:	e9 40 fe ff ff       	jmpq   4033a0 <_init+0x20>

0000000000403560 <curl_global_cleanup@plt>:
  403560:	ff 25 8a 5b 22 00    	jmpq   *0x225b8a(%rip)        # 6290f0 <_GLOBAL_OFFSET_TABLE_+0xf0>
  403566:	68 1b 00 00 00       	pushq  $0x1b
  40356b:	e9 30 fe ff ff       	jmpq   4033a0 <_init+0x20>

0000000000403570 <_ZNKSt7__cxx1112basic_stringIcSt11char_traitsIcESaIcEE4dataEv@plt>:
  403570:	ff 25 82 5b 22 00    	jmpq   *0x225b82(%rip)        # 6290f8 <_GLOBAL_OFFSET_TABLE_+0xf8>
  403576:	68 1c 00 00 00       	pushq  $0x1c
  40357b:	e9 20 fe ff ff       	jmpq   4033a0 <_init+0x20>

0000000000403580 <_ZNKSt7__cxx1112basic_stringIcSt11char_traitsIcESaIcEE5emptyEv@plt>:
  403580:	ff 25 7a 5b 22 00    	jmpq   *0x225b7a(%rip)        # 629100 <_GLOBAL_OFFSET_TABLE_+0x100>
  403586:	68 1d 00 00 00       	pushq  $0x1d
  40358b:	e9 10 fe ff ff       	jmpq   4033a0 <_init+0x20>

0000000000403590 <_ZNKSt7__cxx1112basic_stringIcSt11char_traitsIcESaIcEE4sizeEv@plt>:
  403590:	ff 25 72 5b 22 00    	jmpq   *0x225b72(%rip)        # 629108 <_GLOBAL_OFFSET_TABLE_+0x108>
  403596:	68 1e 00 00 00       	pushq  $0x1e
  40359b:	e9 00 fe ff ff       	jmpq   4033a0 <_init+0x20>

00000000004035a0 <__stack_chk_fail@plt>:
  4035a0:	ff 25 6a 5b 22 00    	jmpq   *0x225b6a(%rip)        # 629110 <_GLOBAL_OFFSET_TABLE_+0x110>
  4035a6:	68 1f 00 00 00       	pushq  $0x1f
  4035ab:	e9 f0 fd ff ff       	jmpq   4033a0 <_init+0x20>

00000000004035b0 <_ZStlsIcSt11char_traitsIcESaIcEERSt13basic_ostreamIT_T0_ES7_RKNSt7__cxx1112basic_stringIS4_S5_T1_EE@plt>:
  4035b0:	ff 25 62 5b 22 00    	jmpq   *0x225b62(%rip)        # 629118 <_GLOBAL_OFFSET_TABLE_+0x118>
  4035b6:	68 20 00 00 00       	pushq  $0x20
  4035bb:	e9 e0 fd ff ff       	jmpq   4033a0 <_init+0x20>

00000000004035c0 <_ZNSt14basic_ofstreamIcSt11char_traitsIcEEC1EPKcSt13_Ios_Openmode@plt>:
  4035c0:	ff 25 5a 5b 22 00    	jmpq   *0x225b5a(%rip)        # 629120 <_GLOBAL_OFFSET_TABLE_+0x120>
  4035c6:	68 21 00 00 00       	pushq  $0x21
  4035cb:	e9 d0 fd ff ff       	jmpq   4033a0 <_init+0x20>

00000000004035d0 <_ZNSolsEi@plt>:
  4035d0:	ff 25 52 5b 22 00    	jmpq   *0x225b52(%rip)        # 629128 <_GLOBAL_OFFSET_TABLE_+0x128>
  4035d6:	68 22 00 00 00       	pushq  $0x22
  4035db:	e9 c0 fd ff ff       	jmpq   4033a0 <_init+0x20>

00000000004035e0 <_ZNSt7__cxx1112basic_stringIcSt11char_traitsIcESaIcEE6appendEPKcm@plt>:
  4035e0:	ff 25 4a 5b 22 00    	jmpq   *0x225b4a(%rip)        # 629130 <_GLOBAL_OFFSET_TABLE_+0x130>
  4035e6:	68 23 00 00 00       	pushq  $0x23
  4035eb:	e9 b0 fd ff ff       	jmpq   4033a0 <_init+0x20>

00000000004035f0 <_ZNSt7__cxx1112basic_stringIcSt11char_traitsIcESaIcEEC1Ev@plt>:
  4035f0:	ff 25 42 5b 22 00    	jmpq   *0x225b42(%rip)        # 629138 <_GLOBAL_OFFSET_TABLE_+0x138>
  4035f6:	68 24 00 00 00       	pushq  $0x24
  4035fb:	e9 a0 fd ff ff       	jmpq   4033a0 <_init+0x20>

0000000000403600 <__cxa_guard_acquire@plt>:
  403600:	ff 25 3a 5b 22 00    	jmpq   *0x225b3a(%rip)        # 629140 <_GLOBAL_OFFSET_TABLE_+0x140>
  403606:	68 25 00 00 00       	pushq  $0x25
  40360b:	e9 90 fd ff ff       	jmpq   4033a0 <_init+0x20>

0000000000403610 <_ZNKSt9basic_iosIcSt11char_traitsIcEEcvbEv@plt>:
  403610:	ff 25 32 5b 22 00    	jmpq   *0x225b32(%rip)        # 629148 <_GLOBAL_OFFSET_TABLE_+0x148>
  403616:	68 26 00 00 00       	pushq  $0x26
  40361b:	e9 80 fd ff ff       	jmpq   4033a0 <_init+0x20>

0000000000403620 <_ZdaPv@plt>:
  403620:	ff 25 2a 5b 22 00    	jmpq   *0x225b2a(%rip)        # 629150 <_GLOBAL_OFFSET_TABLE_+0x150>
  403626:	68 27 00 00 00       	pushq  $0x27
  40362b:	e9 70 fd ff ff       	jmpq   4033a0 <_init+0x20>

0000000000403630 <_ZNSt7__cxx1118basic_stringstreamIcSt11char_traitsIcESaIcEED1Ev@plt>:
  403630:	ff 25 22 5b 22 00    	jmpq   *0x225b22(%rip)        # 629158 <_GLOBAL_OFFSET_TABLE_+0x158>
  403636:	68 28 00 00 00       	pushq  $0x28
  40363b:	e9 60 fd ff ff       	jmpq   4033a0 <_init+0x20>

0000000000403640 <_ZNSt7__cxx1112basic_stringIcSt11char_traitsIcESaIcEEC1EmcRKS3_@plt>:
  403640:	ff 25 1a 5b 22 00    	jmpq   *0x225b1a(%rip)        # 629160 <_GLOBAL_OFFSET_TABLE_+0x160>
  403646:	68 29 00 00 00       	pushq  $0x29
  40364b:	e9 50 fd ff ff       	jmpq   4033a0 <_init+0x20>

0000000000403650 <__cxa_allocate_exception@plt>:
  403650:	ff 25 12 5b 22 00    	jmpq   *0x225b12(%rip)        # 629168 <_GLOBAL_OFFSET_TABLE_+0x168>
  403656:	68 2a 00 00 00       	pushq  $0x2a
  40365b:	e9 40 fd ff ff       	jmpq   4033a0 <_init+0x20>

0000000000403660 <__gmon_start__@plt>:
  403660:	ff 25 0a 5b 22 00    	jmpq   *0x225b0a(%rip)        # 629170 <_GLOBAL_OFFSET_TABLE_+0x170>
  403666:	68 2b 00 00 00       	pushq  $0x2b
  40366b:	e9 30 fd ff ff       	jmpq   4033a0 <_init+0x20>

0000000000403670 <_ZNSt7__cxx1112basic_stringIcSt11char_traitsIcESaIcEEaSEPKc@plt>:
  403670:	ff 25 02 5b 22 00    	jmpq   *0x225b02(%rip)        # 629178 <_GLOBAL_OFFSET_TABLE_+0x178>
  403676:	68 2c 00 00 00       	pushq  $0x2c
  40367b:	e9 20 fd ff ff       	jmpq   4033a0 <_init+0x20>

0000000000403680 <_ZNSt13runtime_errorD2Ev@plt>:
  403680:	ff 25 fa 5a 22 00    	jmpq   *0x225afa(%rip)        # 629180 <_GLOBAL_OFFSET_TABLE_+0x180>
  403686:	68 2d 00 00 00       	pushq  $0x2d
  40368b:	e9 10 fd ff ff       	jmpq   4033a0 <_init+0x20>

0000000000403690 <_ZNSt7__cxx1118basic_stringstreamIcSt11char_traitsIcESaIcEEC1ESt13_Ios_Openmode@plt>:
  403690:	ff 25 f2 5a 22 00    	jmpq   *0x225af2(%rip)        # 629188 <_GLOBAL_OFFSET_TABLE_+0x188>
  403696:	68 2e 00 00 00       	pushq  $0x2e
  40369b:	e9 00 fd ff ff       	jmpq   4033a0 <_init+0x20>

00000000004036a0 <_Znam@plt>:
  4036a0:	ff 25 ea 5a 22 00    	jmpq   *0x225aea(%rip)        # 629190 <_GLOBAL_OFFSET_TABLE_+0x190>
  4036a6:	68 2f 00 00 00       	pushq  $0x2f
  4036ab:	e9 f0 fc ff ff       	jmpq   4033a0 <_init+0x20>

00000000004036b0 <_ZNSt7__cxx1119basic_istringstreamIcSt11char_traitsIcESaIcEEC1ERKNS_12basic_stringIcS2_S3_EESt13_Ios_Openmode@plt>:
  4036b0:	ff 25 e2 5a 22 00    	jmpq   *0x225ae2(%rip)        # 629198 <_GLOBAL_OFFSET_TABLE_+0x198>
  4036b6:	68 30 00 00 00       	pushq  $0x30
  4036bb:	e9 e0 fc ff ff       	jmpq   4033a0 <_init+0x20>

00000000004036c0 <_ZSt18_Rb_tree_decrementPSt18_Rb_tree_node_base@plt>:
  4036c0:	ff 25 da 5a 22 00    	jmpq   *0x225ada(%rip)        # 6291a0 <_GLOBAL_OFFSET_TABLE_+0x1a0>
  4036c6:	68 31 00 00 00       	pushq  $0x31
  4036cb:	e9 d0 fc ff ff       	jmpq   4033a0 <_init+0x20>

00000000004036d0 <_ZNSt7__cxx1112basic_stringIcSt11char_traitsIcESaIcEE6insertEmPKc@plt>:
  4036d0:	ff 25 d2 5a 22 00    	jmpq   *0x225ad2(%rip)        # 6291a8 <_GLOBAL_OFFSET_TABLE_+0x1a8>
  4036d6:	68 32 00 00 00       	pushq  $0x32
  4036db:	e9 c0 fc ff ff       	jmpq   4033a0 <_init+0x20>

00000000004036e0 <_ZNSo5writeEPKcl@plt>:
  4036e0:	ff 25 ca 5a 22 00    	jmpq   *0x225aca(%rip)        # 6291b0 <_GLOBAL_OFFSET_TABLE_+0x1b0>
  4036e6:	68 33 00 00 00       	pushq  $0x33
  4036eb:	e9 b0 fc ff ff       	jmpq   4033a0 <_init+0x20>

00000000004036f0 <_ZStlsIcSt11char_traitsIcEERSt13basic_ostreamIT_T0_ES6_St5_Setw@plt>:
  4036f0:	ff 25 c2 5a 22 00    	jmpq   *0x225ac2(%rip)        # 6291b8 <_GLOBAL_OFFSET_TABLE_+0x1b8>
  4036f6:	68 34 00 00 00       	pushq  $0x34
  4036fb:	e9 a0 fc ff ff       	jmpq   4033a0 <_init+0x20>

0000000000403700 <_ZNSt7__cxx1112basic_stringIcSt11char_traitsIcESaIcEEaSEOS4_@plt>:
  403700:	ff 25 ba 5a 22 00    	jmpq   *0x225aba(%rip)        # 6291c0 <_GLOBAL_OFFSET_TABLE_+0x1c0>
  403706:	68 35 00 00 00       	pushq  $0x35
  40370b:	e9 90 fc ff ff       	jmpq   4033a0 <_init+0x20>

0000000000403710 <_ZNSt7__cxx1112basic_stringIcSt11char_traitsIcESaIcEE5clearEv@plt>:
  403710:	ff 25 b2 5a 22 00    	jmpq   *0x225ab2(%rip)        # 6291c8 <_GLOBAL_OFFSET_TABLE_+0x1c8>
  403716:	68 36 00 00 00       	pushq  $0x36
  40371b:	e9 80 fc ff ff       	jmpq   4033a0 <_init+0x20>

0000000000403720 <_ZdlPv@plt>:
  403720:	ff 25 aa 5a 22 00    	jmpq   *0x225aaa(%rip)        # 6291d0 <_GLOBAL_OFFSET_TABLE_+0x1d0>
  403726:	68 37 00 00 00       	pushq  $0x37
  40372b:	e9 70 fc ff ff       	jmpq   4033a0 <_init+0x20>

0000000000403730 <_ZSt2wsIcSt11char_traitsIcEERSt13basic_istreamIT_T0_ES6_@plt>:
  403730:	ff 25 a2 5a 22 00    	jmpq   *0x225aa2(%rip)        # 6291d8 <_GLOBAL_OFFSET_TABLE_+0x1d8>
  403736:	68 38 00 00 00       	pushq  $0x38
  40373b:	e9 60 fc ff ff       	jmpq   4033a0 <_init+0x20>

0000000000403740 <_ZNSt7__cxx1119basic_istringstreamIcSt11char_traitsIcESaIcEED1Ev@plt>:
  403740:	ff 25 9a 5a 22 00    	jmpq   *0x225a9a(%rip)        # 6291e0 <_GLOBAL_OFFSET_TABLE_+0x1e0>
  403746:	68 39 00 00 00       	pushq  $0x39
  40374b:	e9 50 fc ff ff       	jmpq   4033a0 <_init+0x20>

0000000000403750 <_ZNSi5seekgESt4fposI11__mbstate_tE@plt>:
  403750:	ff 25 92 5a 22 00    	jmpq   *0x225a92(%rip)        # 6291e8 <_GLOBAL_OFFSET_TABLE_+0x1e8>
  403756:	68 3a 00 00 00       	pushq  $0x3a
  40375b:	e9 40 fc ff ff       	jmpq   4033a0 <_init+0x20>

0000000000403760 <__cxa_guard_release@plt>:
  403760:	ff 25 8a 5a 22 00    	jmpq   *0x225a8a(%rip)        # 6291f0 <_GLOBAL_OFFSET_TABLE_+0x1f0>
  403766:	68 3b 00 00 00       	pushq  $0x3b
  40376b:	e9 30 fc ff ff       	jmpq   4033a0 <_init+0x20>

0000000000403770 <_ZStlsISt11char_traitsIcEERSt13basic_ostreamIcT_ES5_PKc@plt>:
  403770:	ff 25 82 5a 22 00    	jmpq   *0x225a82(%rip)        # 6291f8 <_GLOBAL_OFFSET_TABLE_+0x1f8>
  403776:	68 3c 00 00 00       	pushq  $0x3c
  40377b:	e9 20 fc ff ff       	jmpq   4033a0 <_init+0x20>

0000000000403780 <__gxx_personality_v0@plt>:
  403780:	ff 25 7a 5a 22 00    	jmpq   *0x225a7a(%rip)        # 629200 <_GLOBAL_OFFSET_TABLE_+0x200>
  403786:	68 3d 00 00 00       	pushq  $0x3d
  40378b:	e9 10 fc ff ff       	jmpq   4033a0 <_init+0x20>

0000000000403790 <_ZSt20__throw_length_errorPKc@plt>:
  403790:	ff 25 72 5a 22 00    	jmpq   *0x225a72(%rip)        # 629208 <_GLOBAL_OFFSET_TABLE_+0x208>
  403796:	68 3e 00 00 00       	pushq  $0x3e
  40379b:	e9 00 fc ff ff       	jmpq   4033a0 <_init+0x20>

00000000004037a0 <__cxa_throw@plt>:
  4037a0:	ff 25 6a 5a 22 00    	jmpq   *0x225a6a(%rip)        # 629210 <_GLOBAL_OFFSET_TABLE_+0x210>
  4037a6:	68 3f 00 00 00       	pushq  $0x3f
  4037ab:	e9 f0 fb ff ff       	jmpq   4033a0 <_init+0x20>

00000000004037b0 <_ZNSi5ungetEv@plt>:
  4037b0:	ff 25 62 5a 22 00    	jmpq   *0x225a62(%rip)        # 629218 <_GLOBAL_OFFSET_TABLE_+0x218>
  4037b6:	68 40 00 00 00       	pushq  $0x40
  4037bb:	e9 e0 fb ff ff       	jmpq   4033a0 <_init+0x20>

00000000004037c0 <_Unwind_Resume@plt>:
  4037c0:	ff 25 5a 5a 22 00    	jmpq   *0x225a5a(%rip)        # 629220 <_GLOBAL_OFFSET_TABLE_+0x220>
  4037c6:	68 41 00 00 00       	pushq  $0x41
  4037cb:	e9 d0 fb ff ff       	jmpq   4033a0 <_init+0x20>

00000000004037d0 <_ZNSt8ios_base4InitD1Ev@plt>:
  4037d0:	ff 25 52 5a 22 00    	jmpq   *0x225a52(%rip)        # 629228 <_GLOBAL_OFFSET_TABLE_+0x228>
  4037d6:	68 42 00 00 00       	pushq  $0x42
  4037db:	e9 c0 fb ff ff       	jmpq   4033a0 <_init+0x20>

00000000004037e0 <_ZStlsISt11char_traitsIcEERSt13basic_ostreamIcT_ES5_c@plt>:
  4037e0:	ff 25 4a 5a 22 00    	jmpq   *0x225a4a(%rip)        # 629230 <_GLOBAL_OFFSET_TABLE_+0x230>
  4037e6:	68 43 00 00 00       	pushq  $0x43
  4037eb:	e9 b0 fb ff ff       	jmpq   4033a0 <_init+0x20>

00000000004037f0 <_ZNSt7__cxx1112basic_stringIcSt11char_traitsIcESaIcEE6appendEPKc@plt>:
  4037f0:	ff 25 42 5a 22 00    	jmpq   *0x225a42(%rip)        # 629238 <_GLOBAL_OFFSET_TABLE_+0x238>
  4037f6:	68 44 00 00 00       	pushq  $0x44
  4037fb:	e9 a0 fb ff ff       	jmpq   4033a0 <_init+0x20>

0000000000403800 <_ZNKSt7__cxx1118basic_stringstreamIcSt11char_traitsIcESaIcEE3strEv@plt>:
  403800:	ff 25 3a 5a 22 00    	jmpq   *0x225a3a(%rip)        # 629240 <_GLOBAL_OFFSET_TABLE_+0x240>
  403806:	68 45 00 00 00       	pushq  $0x45
  40380b:	e9 90 fb ff ff       	jmpq   4033a0 <_init+0x20>

0000000000403810 <_ZNSt7__cxx1112basic_stringIcSt11char_traitsIcESaIcEEpLEc@plt>:
  403810:	ff 25 32 5a 22 00    	jmpq   *0x225a32(%rip)        # 629248 <_GLOBAL_OFFSET_TABLE_+0x248>
  403816:	68 46 00 00 00       	pushq  $0x46
  40381b:	e9 80 fb ff ff       	jmpq   4033a0 <_init+0x20>

0000000000403820 <_ZStlsIcSt11char_traitsIcEERSt13basic_ostreamIT_T0_ES6_St8_SetfillIS3_E@plt>:
  403820:	ff 25 2a 5a 22 00    	jmpq   *0x225a2a(%rip)        # 629250 <_GLOBAL_OFFSET_TABLE_+0x250>
  403826:	68 47 00 00 00       	pushq  $0x47
  40382b:	e9 70 fb ff ff       	jmpq   4033a0 <_init+0x20>

0000000000403830 <_ZNSt7__cxx1112basic_stringIcSt11char_traitsIcESaIcEED1Ev@plt>:
  403830:	ff 25 22 5a 22 00    	jmpq   *0x225a22(%rip)        # 629258 <_GLOBAL_OFFSET_TABLE_+0x258>
  403836:	68 48 00 00 00       	pushq  $0x48
  40383b:	e9 60 fb ff ff       	jmpq   4033a0 <_init+0x20>

0000000000403840 <__cxa_end_catch@plt>:
  403840:	ff 25 1a 5a 22 00    	jmpq   *0x225a1a(%rip)        # 629260 <_GLOBAL_OFFSET_TABLE_+0x260>
  403846:	68 49 00 00 00       	pushq  $0x49
  40384b:	e9 50 fb ff ff       	jmpq   4033a0 <_init+0x20>

0000000000403850 <_ZNSt14basic_ofstreamIcSt11char_traitsIcEED1Ev@plt>:
  403850:	ff 25 12 5a 22 00    	jmpq   *0x225a12(%rip)        # 629268 <_GLOBAL_OFFSET_TABLE_+0x268>
  403856:	68 4a 00 00 00       	pushq  $0x4a
  40385b:	e9 40 fb ff ff       	jmpq   4033a0 <_init+0x20>

0000000000403860 <_ZNSt7__cxx1112basic_stringIcSt11char_traitsIcESaIcEE6appendEmc@plt>:
  403860:	ff 25 0a 5a 22 00    	jmpq   *0x225a0a(%rip)        # 629270 <_GLOBAL_OFFSET_TABLE_+0x270>
  403866:	68 4b 00 00 00       	pushq  $0x4b
  40386b:	e9 30 fb ff ff       	jmpq   4033a0 <_init+0x20>

0000000000403870 <_ZNSolsEe@plt>:
  403870:	ff 25 02 5a 22 00    	jmpq   *0x225a02(%rip)        # 629278 <_GLOBAL_OFFSET_TABLE_+0x278>
  403876:	68 4c 00 00 00       	pushq  $0x4c
  40387b:	e9 20 fb ff ff       	jmpq   4033a0 <_init+0x20>

0000000000403880 <__cxa_rethrow@plt>:
  403880:	ff 25 fa 59 22 00    	jmpq   *0x2259fa(%rip)        # 629280 <_GLOBAL_OFFSET_TABLE_+0x280>
  403886:	68 4d 00 00 00       	pushq  $0x4d
  40388b:	e9 10 fb ff ff       	jmpq   4033a0 <_init+0x20>

0000000000403890 <_ZNSt7__cxx1112basic_stringIcSt11char_traitsIcESaIcEE7reserveEm@plt>:
  403890:	ff 25 f2 59 22 00    	jmpq   *0x2259f2(%rip)        # 629288 <_GLOBAL_OFFSET_TABLE_+0x288>
  403896:	68 4e 00 00 00       	pushq  $0x4e
  40389b:	e9 00 fb ff ff       	jmpq   4033a0 <_init+0x20>

00000000004038a0 <curl_easy_cleanup@plt>:
  4038a0:	ff 25 ea 59 22 00    	jmpq   *0x2259ea(%rip)        # 629290 <_GLOBAL_OFFSET_TABLE_+0x290>
  4038a6:	68 4f 00 00 00       	pushq  $0x4f
  4038ab:	e9 f0 fa ff ff       	jmpq   4033a0 <_init+0x20>

00000000004038b0 <_ZNSt7__cxx1112basic_stringIcSt11char_traitsIcESaIcEEC1EPKcRKS3_@plt>:
  4038b0:	ff 25 e2 59 22 00    	jmpq   *0x2259e2(%rip)        # 629298 <_GLOBAL_OFFSET_TABLE_+0x298>
  4038b6:	68 50 00 00 00       	pushq  $0x50
  4038bb:	e9 e0 fa ff ff       	jmpq   4033a0 <_init+0x20>

00000000004038c0 <_ZNSt7__cxx1112basic_stringIcSt11char_traitsIcESaIcEE6appendERKS4_@plt>:
  4038c0:	ff 25 da 59 22 00    	jmpq   *0x2259da(%rip)        # 6292a0 <_GLOBAL_OFFSET_TABLE_+0x2a0>
  4038c6:	68 51 00 00 00       	pushq  $0x51
  4038cb:	e9 d0 fa ff ff       	jmpq   4033a0 <_init+0x20>

00000000004038d0 <__cxa_atexit@plt>:
  4038d0:	ff 25 d2 59 22 00    	jmpq   *0x2259d2(%rip)        # 6292a8 <_GLOBAL_OFFSET_TABLE_+0x2a8>
  4038d6:	68 52 00 00 00       	pushq  $0x52
  4038db:	e9 c0 fa ff ff       	jmpq   4033a0 <_init+0x20>

00000000004038e0 <__cxa_free_exception@plt>:
  4038e0:	ff 25 ca 59 22 00    	jmpq   *0x2259ca(%rip)        # 6292b0 <_GLOBAL_OFFSET_TABLE_+0x2b0>
  4038e6:	68 53 00 00 00       	pushq  $0x53
  4038eb:	e9 b0 fa ff ff       	jmpq   4033a0 <_init+0x20>

00000000004038f0 <_ZNSi3getERc@plt>:
  4038f0:	ff 25 c2 59 22 00    	jmpq   *0x2259c2(%rip)        # 6292b8 <_GLOBAL_OFFSET_TABLE_+0x2b8>
  4038f6:	68 54 00 00 00       	pushq  $0x54
  4038fb:	e9 a0 fa ff ff       	jmpq   4033a0 <_init+0x20>

0000000000403900 <_ZNSt7__cxx1119basic_ostringstreamIcSt11char_traitsIcESaIcEED1Ev@plt>:
  403900:	ff 25 ba 59 22 00    	jmpq   *0x2259ba(%rip)        # 6292c0 <_GLOBAL_OFFSET_TABLE_+0x2c0>
  403906:	68 55 00 00 00       	pushq  $0x55
  40390b:	e9 90 fa ff ff       	jmpq   4033a0 <_init+0x20>

0000000000403910 <malloc@plt>:
  403910:	ff 25 b2 59 22 00    	jmpq   *0x2259b2(%rip)        # 6292c8 <_GLOBAL_OFFSET_TABLE_+0x2c8>
  403916:	68 56 00 00 00       	pushq  $0x56
  40391b:	e9 80 fa ff ff       	jmpq   4033a0 <_init+0x20>

0000000000403920 <_ZSt18_Rb_tree_incrementPKSt18_Rb_tree_node_base@plt>:
  403920:	ff 25 aa 59 22 00    	jmpq   *0x2259aa(%rip)        # 6292d0 <_GLOBAL_OFFSET_TABLE_+0x2d0>
  403926:	68 57 00 00 00       	pushq  $0x57
  40392b:	e9 70 fa ff ff       	jmpq   4033a0 <_init+0x20>

0000000000403930 <_ZNSt14basic_ofstreamIcSt11char_traitsIcEE5closeEv@plt>:
  403930:	ff 25 a2 59 22 00    	jmpq   *0x2259a2(%rip)        # 6292d8 <_GLOBAL_OFFSET_TABLE_+0x2d8>
  403936:	68 58 00 00 00       	pushq  $0x58
  40393b:	e9 60 fa ff ff       	jmpq   4033a0 <_init+0x20>

0000000000403940 <_ZNSt7__cxx1112basic_stringIcSt11char_traitsIcESaIcEEC1EOS4_@plt>:
  403940:	ff 25 9a 59 22 00    	jmpq   *0x22599a(%rip)        # 6292e0 <_GLOBAL_OFFSET_TABLE_+0x2e0>
  403946:	68 59 00 00 00       	pushq  $0x59
  40394b:	e9 50 fa ff ff       	jmpq   4033a0 <_init+0x20>

0000000000403950 <curl_easy_init@plt>:
  403950:	ff 25 92 59 22 00    	jmpq   *0x225992(%rip)        # 6292e8 <_GLOBAL_OFFSET_TABLE_+0x2e8>
  403956:	68 5a 00 00 00       	pushq  $0x5a
  40395b:	e9 40 fa ff ff       	jmpq   4033a0 <_init+0x20>

0000000000403960 <curl_easy_setopt@plt>:
  403960:	ff 25 8a 59 22 00    	jmpq   *0x22598a(%rip)        # 6292f0 <_GLOBAL_OFFSET_TABLE_+0x2f0>
  403966:	68 5b 00 00 00       	pushq  $0x5b
  40396b:	e9 30 fa ff ff       	jmpq   4033a0 <_init+0x20>

0000000000403970 <__libc_start_main@plt>:
  403970:	ff 25 82 59 22 00    	jmpq   *0x225982(%rip)        # 6292f8 <_GLOBAL_OFFSET_TABLE_+0x2f8>
  403976:	68 5c 00 00 00       	pushq  $0x5c
  40397b:	e9 20 fa ff ff       	jmpq   4033a0 <_init+0x20>

0000000000403980 <_ZNSaIcEC1Ev@plt>:
  403980:	ff 25 7a 59 22 00    	jmpq   *0x22597a(%rip)        # 629300 <_GLOBAL_OFFSET_TABLE_+0x300>
  403986:	68 5d 00 00 00       	pushq  $0x5d
  40398b:	e9 10 fa ff ff       	jmpq   4033a0 <_init+0x20>

0000000000403990 <_ZNSi7putbackEc@plt>:
  403990:	ff 25 72 59 22 00    	jmpq   *0x225972(%rip)        # 629308 <_GLOBAL_OFFSET_TABLE_+0x308>
  403996:	68 5e 00 00 00       	pushq  $0x5e
  40399b:	e9 00 fa ff ff       	jmpq   4033a0 <_init+0x20>

00000000004039a0 <_ZSt18_Rb_tree_incrementPSt18_Rb_tree_node_base@plt>:
  4039a0:	ff 25 6a 59 22 00    	jmpq   *0x22596a(%rip)        # 629310 <_GLOBAL_OFFSET_TABLE_+0x310>
  4039a6:	68 5f 00 00 00       	pushq  $0x5f
  4039ab:	e9 f0 f9 ff ff       	jmpq   4033a0 <_init+0x20>

00000000004039b0 <_ZSt4endlIcSt11char_traitsIcEERSt13basic_ostreamIT_T0_ES6_@plt>:
  4039b0:	ff 25 62 59 22 00    	jmpq   *0x225962(%rip)        # 629318 <_GLOBAL_OFFSET_TABLE_+0x318>
  4039b6:	68 60 00 00 00       	pushq  $0x60
  4039bb:	e9 e0 f9 ff ff       	jmpq   4033a0 <_init+0x20>

00000000004039c0 <_ZNSt8ios_base4InitC1Ev@plt>:
  4039c0:	ff 25 5a 59 22 00    	jmpq   *0x22595a(%rip)        # 629320 <_GLOBAL_OFFSET_TABLE_+0x320>
  4039c6:	68 61 00 00 00       	pushq  $0x61
  4039cb:	e9 d0 f9 ff ff       	jmpq   4033a0 <_init+0x20>

00000000004039d0 <_ZNK3Gdk6Pixbuf12scale_simpleEiiNS_10InterpTypeE@plt>:
  4039d0:	ff 25 52 59 22 00    	jmpq   *0x225952(%rip)        # 629328 <_GLOBAL_OFFSET_TABLE_+0x328>
  4039d6:	68 62 00 00 00       	pushq  $0x62
  4039db:	e9 c0 f9 ff ff       	jmpq   4033a0 <_init+0x20>

00000000004039e0 <_ZNSolsEPFRSoS_E@plt>:
  4039e0:	ff 25 4a 59 22 00    	jmpq   *0x22594a(%rip)        # 629330 <_GLOBAL_OFFSET_TABLE_+0x330>
  4039e6:	68 63 00 00 00       	pushq  $0x63
  4039eb:	e9 b0 f9 ff ff       	jmpq   4033a0 <_init+0x20>

00000000004039f0 <_ZNSirsEPFRSiS_E@plt>:
  4039f0:	ff 25 42 59 22 00    	jmpq   *0x225942(%rip)        # 629338 <_GLOBAL_OFFSET_TABLE_+0x338>
  4039f6:	68 64 00 00 00       	pushq  $0x64
  4039fb:	e9 a0 f9 ff ff       	jmpq   4033a0 <_init+0x20>

0000000000403a00 <_ZNKSt9basic_iosIcSt11char_traitsIcEE4failEv@plt>:
  403a00:	ff 25 3a 59 22 00    	jmpq   *0x22593a(%rip)        # 629340 <_GLOBAL_OFFSET_TABLE_+0x340>
  403a06:	68 65 00 00 00       	pushq  $0x65
  403a0b:	e9 90 f9 ff ff       	jmpq   4033a0 <_init+0x20>

0000000000403a10 <_ZNSt13runtime_errorC2EPKc@plt>:
  403a10:	ff 25 32 59 22 00    	jmpq   *0x225932(%rip)        # 629348 <_GLOBAL_OFFSET_TABLE_+0x348>
  403a16:	68 66 00 00 00       	pushq  $0x66
  403a1b:	e9 80 f9 ff ff       	jmpq   4033a0 <_init+0x20>

0000000000403a20 <_ZNSirsERe@plt>:
  403a20:	ff 25 2a 59 22 00    	jmpq   *0x22592a(%rip)        # 629350 <_GLOBAL_OFFSET_TABLE_+0x350>
  403a26:	68 67 00 00 00       	pushq  $0x67
  403a2b:	e9 70 f9 ff ff       	jmpq   4033a0 <_init+0x20>

0000000000403a30 <_ZNKSt7__cxx1112basic_stringIcSt11char_traitsIcESaIcEE3endEv@plt>:
  403a30:	ff 25 22 59 22 00    	jmpq   *0x225922(%rip)        # 629358 <_GLOBAL_OFFSET_TABLE_+0x358>
  403a36:	68 68 00 00 00       	pushq  $0x68
  403a3b:	e9 60 f9 ff ff       	jmpq   4033a0 <_init+0x20>

0000000000403a40 <_ZSt29_Rb_tree_insert_and_rebalancebPSt18_Rb_tree_node_baseS0_RS_@plt>:
  403a40:	ff 25 1a 59 22 00    	jmpq   *0x22591a(%rip)        # 629360 <_GLOBAL_OFFSET_TABLE_+0x360>
  403a46:	68 69 00 00 00       	pushq  $0x69
  403a4b:	e9 50 f9 ff ff       	jmpq   4033a0 <_init+0x20>

0000000000403a50 <_ZNSi4peekEv@plt>:
  403a50:	ff 25 12 59 22 00    	jmpq   *0x225912(%rip)        # 629368 <_GLOBAL_OFFSET_TABLE_+0x368>
  403a56:	68 6a 00 00 00       	pushq  $0x6a
  403a5b:	e9 40 f9 ff ff       	jmpq   4033a0 <_init+0x20>

0000000000403a60 <memcmp@plt>:
  403a60:	ff 25 0a 59 22 00    	jmpq   *0x22590a(%rip)        # 629370 <_GLOBAL_OFFSET_TABLE_+0x370>
  403a66:	68 6b 00 00 00       	pushq  $0x6b
  403a6b:	e9 30 f9 ff ff       	jmpq   4033a0 <_init+0x20>

0000000000403a70 <_ZNSt9basic_iosIcSt11char_traitsIcEE5clearESt12_Ios_Iostate@plt>:
  403a70:	ff 25 02 59 22 00    	jmpq   *0x225902(%rip)        # 629378 <_GLOBAL_OFFSET_TABLE_+0x378>
  403a76:	68 6c 00 00 00       	pushq  $0x6c
  403a7b:	e9 20 f9 ff ff       	jmpq   4033a0 <_init+0x20>

0000000000403a80 <_ZNSt7__cxx1119basic_ostringstreamIcSt11char_traitsIcESaIcEEC1ESt13_Ios_Openmode@plt>:
  403a80:	ff 25 fa 58 22 00    	jmpq   *0x2258fa(%rip)        # 629380 <_GLOBAL_OFFSET_TABLE_+0x380>
  403a86:	68 6d 00 00 00       	pushq  $0x6d
  403a8b:	e9 10 f9 ff ff       	jmpq   4033a0 <_init+0x20>

0000000000403a90 <_ZNSt7__cxx1112basic_stringIcSt11char_traitsIcESaIcEEixEm@plt>:
  403a90:	ff 25 f2 58 22 00    	jmpq   *0x2258f2(%rip)        # 629388 <_GLOBAL_OFFSET_TABLE_+0x388>
  403a96:	68 6e 00 00 00       	pushq  $0x6e
  403a9b:	e9 00 f9 ff ff       	jmpq   4033a0 <_init+0x20>

0000000000403aa0 <_ZNSt7__cxx1112basic_stringIcSt11char_traitsIcESaIcEEaSERKS4_@plt>:
  403aa0:	ff 25 ea 58 22 00    	jmpq   *0x2258ea(%rip)        # 629390 <_GLOBAL_OFFSET_TABLE_+0x390>
  403aa6:	68 6f 00 00 00       	pushq  $0x6f
  403aab:	e9 f0 f8 ff ff       	jmpq   4033a0 <_init+0x20>

0000000000403ab0 <_ZNKSt7__cxx1119basic_ostringstreamIcSt11char_traitsIcESaIcEE3strEv@plt>:
  403ab0:	ff 25 e2 58 22 00    	jmpq   *0x2258e2(%rip)        # 629398 <_GLOBAL_OFFSET_TABLE_+0x398>
  403ab6:	68 70 00 00 00       	pushq  $0x70
  403abb:	e9 e0 f8 ff ff       	jmpq   4033a0 <_init+0x20>

0000000000403ac0 <_ZNSt7__cxx1112basic_stringIcSt11char_traitsIcESaIcEE9push_backEc@plt>:
  403ac0:	ff 25 da 58 22 00    	jmpq   *0x2258da(%rip)        # 6293a0 <_GLOBAL_OFFSET_TABLE_+0x3a0>
  403ac6:	68 71 00 00 00       	pushq  $0x71
  403acb:	e9 d0 f8 ff ff       	jmpq   4033a0 <_init+0x20>

0000000000403ad0 <_ZNSt7__cxx1112basic_stringIcSt11char_traitsIcESaIcEE4swapERS4_@plt>:
  403ad0:	ff 25 d2 58 22 00    	jmpq   *0x2258d2(%rip)        # 6293a8 <_GLOBAL_OFFSET_TABLE_+0x3a8>
  403ad6:	68 72 00 00 00       	pushq  $0x72
  403adb:	e9 c0 f8 ff ff       	jmpq   4033a0 <_init+0x20>

0000000000403ae0 <_ZNKSt9basic_iosIcSt11char_traitsIcEE3eofEv@plt>:
  403ae0:	ff 25 ca 58 22 00    	jmpq   *0x2258ca(%rip)        # 6293b0 <_GLOBAL_OFFSET_TABLE_+0x3b0>
  403ae6:	68 73 00 00 00       	pushq  $0x73
  403aeb:	e9 b0 f8 ff ff       	jmpq   4033a0 <_init+0x20>

0000000000403af0 <_ZNSirsERi@plt>:
  403af0:	ff 25 c2 58 22 00    	jmpq   *0x2258c2(%rip)        # 6293b8 <_GLOBAL_OFFSET_TABLE_+0x3b8>
  403af6:	68 74 00 00 00       	pushq  $0x74
  403afb:	e9 a0 f8 ff ff       	jmpq   4033a0 <_init+0x20>

0000000000403b00 <system@plt>:
  403b00:	ff 25 ba 58 22 00    	jmpq   *0x2258ba(%rip)        # 6293c0 <_GLOBAL_OFFSET_TABLE_+0x3c0>
  403b06:	68 75 00 00 00       	pushq  $0x75
  403b0b:	e9 90 f8 ff ff       	jmpq   4033a0 <_init+0x20>

0000000000403b10 <_ZNSolsEPFRSt8ios_baseS0_E@plt>:
  403b10:	ff 25 b2 58 22 00    	jmpq   *0x2258b2(%rip)        # 6293c8 <_GLOBAL_OFFSET_TABLE_+0x3c8>
  403b16:	68 76 00 00 00       	pushq  $0x76
  403b1b:	e9 80 f8 ff ff       	jmpq   4033a0 <_init+0x20>

0000000000403b20 <_ZN3Gdk6Pixbuf16create_from_fileERKNSt7__cxx1112basic_stringIcSt11char_traitsIcESaIcEEE@plt>:
  403b20:	ff 25 aa 58 22 00    	jmpq   *0x2258aa(%rip)        # 6293d0 <_GLOBAL_OFFSET_TABLE_+0x3d0>
  403b26:	68 77 00 00 00       	pushq  $0x77
  403b2b:	e9 70 f8 ff ff       	jmpq   4033a0 <_init+0x20>

0000000000403b30 <_ZNSaIcED1Ev@plt>:
  403b30:	ff 25 a2 58 22 00    	jmpq   *0x2258a2(%rip)        # 6293d8 <_GLOBAL_OFFSET_TABLE_+0x3d8>
  403b36:	68 78 00 00 00       	pushq  $0x78
  403b3b:	e9 60 f8 ff ff       	jmpq   4033a0 <_init+0x20>

Disassembly of section .text:

0000000000403b40 <_start>:
  403b40:	31 ed                	xor    %ebp,%ebp
  403b42:	49 89 d1             	mov    %rdx,%r9
  403b45:	5e                   	pop    %rsi
  403b46:	48 89 e2             	mov    %rsp,%rdx
  403b49:	48 83 e4 f0          	and    $0xfffffffffffffff0,%rsp
  403b4d:	50                   	push   %rax
  403b4e:	54                   	push   %rsp
  403b4f:	49 c7 c0 10 c7 41 00 	mov    $0x41c710,%r8
  403b56:	48 c7 c1 a0 c6 41 00 	mov    $0x41c6a0,%rcx
  403b5d:	48 c7 c7 54 db 40 00 	mov    $0x40db54,%rdi
  403b64:	e8 07 fe ff ff       	callq  403970 <__libc_start_main@plt>
  403b69:	f4                   	hlt    
  403b6a:	66 0f 1f 44 00 00    	nopw   0x0(%rax,%rax,1)

0000000000403b70 <deregister_tm_clones>:
  403b70:	b8 6f 94 62 00       	mov    $0x62946f,%eax
  403b75:	55                   	push   %rbp
  403b76:	48 2d 68 94 62 00    	sub    $0x629468,%rax
  403b7c:	48 83 f8 0e          	cmp    $0xe,%rax
  403b80:	48 89 e5             	mov    %rsp,%rbp
  403b83:	76 1b                	jbe    403ba0 <deregister_tm_clones+0x30>
  403b85:	b8 00 00 00 00       	mov    $0x0,%eax
  403b8a:	48 85 c0             	test   %rax,%rax
  403b8d:	74 11                	je     403ba0 <deregister_tm_clones+0x30>
  403b8f:	5d                   	pop    %rbp
  403b90:	bf 68 94 62 00       	mov    $0x629468,%edi
  403b95:	ff e0                	jmpq   *%rax
  403b97:	66 0f 1f 84 00 00 00 	nopw   0x0(%rax,%rax,1)
  403b9e:	00 00 
  403ba0:	5d                   	pop    %rbp
  403ba1:	c3                   	retq   
  403ba2:	0f 1f 40 00          	nopl   0x0(%rax)
  403ba6:	66 2e 0f 1f 84 00 00 	nopw   %cs:0x0(%rax,%rax,1)
  403bad:	00 00 00 

0000000000403bb0 <register_tm_clones>:
  403bb0:	be 68 94 62 00       	mov    $0x629468,%esi
  403bb5:	55                   	push   %rbp
  403bb6:	48 81 ee 68 94 62 00 	sub    $0x629468,%rsi
  403bbd:	48 c1 fe 03          	sar    $0x3,%rsi
  403bc1:	48 89 e5             	mov    %rsp,%rbp
  403bc4:	48 89 f0             	mov    %rsi,%rax
  403bc7:	48 c1 e8 3f          	shr    $0x3f,%rax
  403bcb:	48 01 c6             	add    %rax,%rsi
  403bce:	48 d1 fe             	sar    %rsi
  403bd1:	74 15                	je     403be8 <register_tm_clones+0x38>
  403bd3:	b8 00 00 00 00       	mov    $0x0,%eax
  403bd8:	48 85 c0             	test   %rax,%rax
  403bdb:	74 0b                	je     403be8 <register_tm_clones+0x38>
  403bdd:	5d                   	pop    %rbp
  403bde:	bf 68 94 62 00       	mov    $0x629468,%edi
  403be3:	ff e0                	jmpq   *%rax
  403be5:	0f 1f 00             	nopl   (%rax)
  403be8:	5d                   	pop    %rbp
  403be9:	c3                   	retq   
  403bea:	66 0f 1f 44 00 00    	nopw   0x0(%rax,%rax,1)

0000000000403bf0 <__do_global_dtors_aux>:
  403bf0:	80 3d 39 5b 22 00 00 	cmpb   $0x0,0x225b39(%rip)        # 629730 <completed.7568>
  403bf7:	75 11                	jne    403c0a <__do_global_dtors_aux+0x1a>
  403bf9:	55                   	push   %rbp
  403bfa:	48 89 e5             	mov    %rsp,%rbp
  403bfd:	e8 6e ff ff ff       	callq  403b70 <deregister_tm_clones>
  403c02:	5d                   	pop    %rbp
  403c03:	c6 05 26 5b 22 00 01 	movb   $0x1,0x225b26(%rip)        # 629730 <completed.7568>
  403c0a:	f3 c3                	repz retq 
  403c0c:	0f 1f 40 00          	nopl   0x0(%rax)

0000000000403c10 <frame_dummy>:
  403c10:	bf d0 8d 62 00       	mov    $0x628dd0,%edi
  403c15:	48 83 3f 00          	cmpq   $0x0,(%rdi)
  403c19:	75 05                	jne    403c20 <frame_dummy+0x10>
  403c1b:	eb 93                	jmp    403bb0 <register_tm_clones>
  403c1d:	0f 1f 00             	nopl   (%rax)
  403c20:	b8 00 00 00 00       	mov    $0x0,%eax
  403c25:	48 85 c0             	test   %rax,%rax
  403c28:	74 f1                	je     403c1b <frame_dummy+0xb>
  403c2a:	55                   	push   %rbp
  403c2b:	48 89 e5             	mov    %rsp,%rbp
  403c2e:	ff d0                	callq  *%rax
  403c30:	5d                   	pop    %rbp
  403c31:	e9 7a ff ff ff       	jmpq   403bb0 <register_tm_clones>

0000000000403c36 <_ZN6jsonxx9assertionEPKciS1_b>:
  403c36:	55                   	push   %rbp
  403c37:	48 89 e5             	mov    %rsp,%rbp
  403c3a:	48 83 ec 20          	sub    $0x20,%rsp
  403c3e:	48 89 7d f8          	mov    %rdi,-0x8(%rbp)
  403c42:	89 75 f4             	mov    %esi,-0xc(%rbp)
  403c45:	48 89 55 e8          	mov    %rdx,-0x18(%rbp)
  403c49:	89 c8                	mov    %ecx,%eax
  403c4b:	88 45 f0             	mov    %al,-0x10(%rbp)
  403c4e:	0f b6 45 f0          	movzbl -0x10(%rbp),%eax
  403c52:	83 f0 01             	xor    $0x1,%eax
  403c55:	84 c0                	test   %al,%al
  403c57:	74 40                	je     403c99 <_ZN6jsonxx9assertionEPKciS1_b+0x63>
  403c59:	48 8b 05 40 59 22 00 	mov    0x225940(%rip),%rax        # 6295a0 <stderr@@GLIBC_2.2.5>
  403c60:	8b 75 f4             	mov    -0xc(%rbp),%esi
  403c63:	48 8b 4d f8          	mov    -0x8(%rbp),%rcx
  403c67:	48 8b 55 e8          	mov    -0x18(%rbp),%rdx
  403c6b:	41 89 f0             	mov    %esi,%r8d
  403c6e:	be 48 c7 41 00       	mov    $0x41c748,%esi
  403c73:	48 89 c7             	mov    %rax,%rdi
  403c76:	b8 00 00 00 00       	mov    $0x0,%eax
  403c7b:	e8 a0 f8 ff ff       	callq  403520 <fprintf@plt>
  403c80:	b9 e0 d4 41 00       	mov    $0x41d4e0,%ecx
  403c85:	ba 1d 00 00 00       	mov    $0x1d,%edx
  403c8a:	be 75 c7 41 00       	mov    $0x41c775,%esi
  403c8f:	bf 85 c7 41 00       	mov    $0x41c785,%edi
  403c94:	e8 67 f8 ff ff       	callq  403500 <__assert_fail@plt>
  403c99:	90                   	nop
  403c9a:	c9                   	leaveq 
  403c9b:	c3                   	retq   

0000000000403c9c <_ZN6jsonxx5matchEPKcRSi>:
  403c9c:	55                   	push   %rbp
  403c9d:	48 89 e5             	mov    %rsp,%rbp
  403ca0:	48 83 ec 30          	sub    $0x30,%rsp
  403ca4:	48 89 7d d8          	mov    %rdi,-0x28(%rbp)
  403ca8:	48 89 75 d0          	mov    %rsi,-0x30(%rbp)
  403cac:	64 48 8b 04 25 28 00 	mov    %fs:0x28,%rax
  403cb3:	00 00 
  403cb5:	48 89 45 f8          	mov    %rax,-0x8(%rbp)
  403cb9:	31 c0                	xor    %eax,%eax
  403cbb:	48 8b 45 d0          	mov    -0x30(%rbp),%rax
  403cbf:	be 30 37 40 00       	mov    $0x403730,%esi
  403cc4:	48 89 c7             	mov    %rax,%rdi
  403cc7:	e8 24 fd ff ff       	callq  4039f0 <_ZNSirsEPFRSiS_E@plt>
  403ccc:	48 8b 45 d8          	mov    -0x28(%rbp),%rax
  403cd0:	48 89 45 f0          	mov    %rax,-0x10(%rbp)
  403cd4:	c6 45 ef 00          	movb   $0x0,-0x11(%rbp)
  403cd8:	48 8b 45 d0          	mov    -0x30(%rbp),%rax
  403cdc:	48 8b 00             	mov    (%rax),%rax
  403cdf:	48 83 e8 18          	sub    $0x18,%rax
  403ce3:	48 8b 00             	mov    (%rax),%rax
  403ce6:	48 89 c2             	mov    %rax,%rdx
  403ce9:	48 8b 45 d0          	mov    -0x30(%rbp),%rax
  403ced:	48 01 d0             	add    %rdx,%rax
  403cf0:	48 89 c7             	mov    %rax,%rdi
  403cf3:	e8 18 f9 ff ff       	callq  403610 <_ZNKSt9basic_iosIcSt11char_traitsIcEEcvbEv@plt>
  403cf8:	84 c0                	test   %al,%al
  403cfa:	74 39                	je     403d35 <_ZN6jsonxx5matchEPKcRSi+0x99>
  403cfc:	48 8b 45 d0          	mov    -0x30(%rbp),%rax
  403d00:	48 8b 00             	mov    (%rax),%rax
  403d03:	48 83 e8 18          	sub    $0x18,%rax
  403d07:	48 8b 00             	mov    (%rax),%rax
  403d0a:	48 89 c2             	mov    %rax,%rdx
  403d0d:	48 8b 45 d0          	mov    -0x30(%rbp),%rax
  403d11:	48 01 d0             	add    %rdx,%rax
  403d14:	48 89 c7             	mov    %rax,%rdi
  403d17:	e8 c4 fd ff ff       	callq  403ae0 <_ZNKSt9basic_iosIcSt11char_traitsIcEE3eofEv@plt>
  403d1c:	83 f0 01             	xor    $0x1,%eax
  403d1f:	84 c0                	test   %al,%al
  403d21:	74 12                	je     403d35 <_ZN6jsonxx5matchEPKcRSi+0x99>
  403d23:	48 8b 45 f0          	mov    -0x10(%rbp),%rax
  403d27:	0f b6 00             	movzbl (%rax),%eax
  403d2a:	84 c0                	test   %al,%al
  403d2c:	74 07                	je     403d35 <_ZN6jsonxx5matchEPKcRSi+0x99>
  403d2e:	b8 01 00 00 00       	mov    $0x1,%eax
  403d33:	eb 05                	jmp    403d3a <_ZN6jsonxx5matchEPKcRSi+0x9e>
  403d35:	b8 00 00 00 00       	mov    $0x0,%eax
  403d3a:	84 c0                	test   %al,%al
  403d3c:	0f 84 87 00 00 00    	je     403dc9 <_ZN6jsonxx5matchEPKcRSi+0x12d>
  403d42:	48 8d 55 ef          	lea    -0x11(%rbp),%rdx
  403d46:	48 8b 45 d0          	mov    -0x30(%rbp),%rax
  403d4a:	48 89 d6             	mov    %rdx,%rsi
  403d4d:	48 89 c7             	mov    %rax,%rdi
  403d50:	e8 9b fb ff ff       	callq  4038f0 <_ZNSi3getERc@plt>
  403d55:	48 8b 45 f0          	mov    -0x10(%rbp),%rax
  403d59:	0f b6 10             	movzbl (%rax),%edx
  403d5c:	0f b6 45 ef          	movzbl -0x11(%rbp),%eax
  403d60:	38 c2                	cmp    %al,%dl
  403d62:	74 55                	je     403db9 <_ZN6jsonxx5matchEPKcRSi+0x11d>
  403d64:	0f b6 45 ef          	movzbl -0x11(%rbp),%eax
  403d68:	0f be d0             	movsbl %al,%edx
  403d6b:	48 8b 45 d0          	mov    -0x30(%rbp),%rax
  403d6f:	89 d6                	mov    %edx,%esi
  403d71:	48 89 c7             	mov    %rax,%rdi
  403d74:	e8 17 fc ff ff       	callq  403990 <_ZNSi7putbackEc@plt>
  403d79:	48 8b 45 d0          	mov    -0x30(%rbp),%rax
  403d7d:	48 89 c7             	mov    %rax,%rdi
  403d80:	e8 c8 08 00 00       	callq  40464d <_ZN6jsonxx13parse_commentERSi>
  403d85:	84 c0                	test   %al,%al
  403d87:	75 3a                	jne    403dc3 <_ZN6jsonxx5matchEPKcRSi+0x127>
  403d89:	48 8b 45 f0          	mov    -0x10(%rbp),%rax
  403d8d:	48 3b 45 d8          	cmp    -0x28(%rbp),%rax
  403d91:	76 1f                	jbe    403db2 <_ZN6jsonxx5matchEPKcRSi+0x116>
  403d93:	48 83 6d f0 01       	subq   $0x1,-0x10(%rbp)
  403d98:	48 8b 45 f0          	mov    -0x10(%rbp),%rax
  403d9c:	0f b6 00             	movzbl (%rax),%eax
  403d9f:	0f be d0             	movsbl %al,%edx
  403da2:	48 8b 45 d0          	mov    -0x30(%rbp),%rax
  403da6:	89 d6                	mov    %edx,%esi
  403da8:	48 89 c7             	mov    %rax,%rdi
  403dab:	e8 e0 fb ff ff       	callq  403990 <_ZNSi7putbackEc@plt>
  403db0:	eb d7                	jmp    403d89 <_ZN6jsonxx5matchEPKcRSi+0xed>
  403db2:	b8 00 00 00 00       	mov    $0x0,%eax
  403db7:	eb 1c                	jmp    403dd5 <_ZN6jsonxx5matchEPKcRSi+0x139>
  403db9:	48 83 45 f0 01       	addq   $0x1,-0x10(%rbp)
  403dbe:	e9 15 ff ff ff       	jmpq   403cd8 <_ZN6jsonxx5matchEPKcRSi+0x3c>
  403dc3:	90                   	nop
  403dc4:	e9 0f ff ff ff       	jmpq   403cd8 <_ZN6jsonxx5matchEPKcRSi+0x3c>
  403dc9:	48 8b 45 f0          	mov    -0x10(%rbp),%rax
  403dcd:	0f b6 00             	movzbl (%rax),%eax
  403dd0:	84 c0                	test   %al,%al
  403dd2:	0f 94 c0             	sete   %al
  403dd5:	48 8b 4d f8          	mov    -0x8(%rbp),%rcx
  403dd9:	64 48 33 0c 25 28 00 	xor    %fs:0x28,%rcx
  403de0:	00 00 
  403de2:	74 05                	je     403de9 <_ZN6jsonxx5matchEPKcRSi+0x14d>
  403de4:	e8 b7 f7 ff ff       	callq  4035a0 <__stack_chk_fail@plt>
  403de9:	c9                   	leaveq 
  403dea:	c3                   	retq   

0000000000403deb <_ZN6jsonxx12parse_stringERSiRNSt7__cxx1112basic_stringIcSt11char_traitsIcESaIcEEE>:
  403deb:	55                   	push   %rbp
  403dec:	48 89 e5             	mov    %rsp,%rbp
  403def:	53                   	push   %rbx
  403df0:	48 81 ec b8 01 00 00 	sub    $0x1b8,%rsp
  403df7:	48 89 bd 48 fe ff ff 	mov    %rdi,-0x1b8(%rbp)
  403dfe:	48 89 b5 40 fe ff ff 	mov    %rsi,-0x1c0(%rbp)
  403e05:	64 48 8b 04 25 28 00 	mov    %fs:0x28,%rax
  403e0c:	00 00 
  403e0e:	48 89 45 e8          	mov    %rax,-0x18(%rbp)
  403e12:	31 c0                	xor    %eax,%eax
  403e14:	c6 85 5a fe ff ff 00 	movb   $0x0,-0x1a6(%rbp)
  403e1b:	c6 85 5b fe ff ff 22 	movb   $0x22,-0x1a5(%rbp)
  403e22:	48 8b 85 48 fe ff ff 	mov    -0x1b8(%rbp),%rax
  403e29:	48 89 c6             	mov    %rax,%rsi
  403e2c:	bf 87 c7 41 00       	mov    $0x41c787,%edi
  403e31:	e8 66 fe ff ff       	callq  403c9c <_ZN6jsonxx5matchEPKcRSi>
  403e36:	83 f0 01             	xor    $0x1,%eax
  403e39:	84 c0                	test   %al,%al
  403e3b:	74 4b                	je     403e88 <_ZN6jsonxx12parse_stringERSiRNSt7__cxx1112basic_stringIcSt11char_traitsIcESaIcEEE+0x9d>
  403e3d:	c6 85 5b fe ff ff 27 	movb   $0x27,-0x1a5(%rbp)
  403e44:	48 8b 85 48 fe ff ff 	mov    -0x1b8(%rbp),%rax
  403e4b:	48 89 c7             	mov    %rax,%rdi
  403e4e:	e8 fd fb ff ff       	callq  403a50 <_ZNSi4peekEv@plt>
  403e53:	89 c2                	mov    %eax,%edx
  403e55:	0f be 85 5b fe ff ff 	movsbl -0x1a5(%rbp),%eax
  403e5c:	39 c2                	cmp    %eax,%edx
  403e5e:	0f 95 c0             	setne  %al
  403e61:	84 c0                	test   %al,%al
  403e63:	74 0a                	je     403e6f <_ZN6jsonxx12parse_stringERSiRNSt7__cxx1112basic_stringIcSt11char_traitsIcESaIcEEE+0x84>
  403e65:	b8 00 00 00 00       	mov    $0x0,%eax
  403e6a:	e9 f9 03 00 00       	jmpq   404268 <_ZN6jsonxx12parse_stringERSiRNSt7__cxx1112basic_stringIcSt11char_traitsIcESaIcEEE+0x47d>
  403e6f:	48 8d 95 5a fe ff ff 	lea    -0x1a6(%rbp),%rdx
  403e76:	48 8b 85 48 fe ff ff 	mov    -0x1b8(%rbp),%rax
  403e7d:	48 89 d6             	mov    %rdx,%rsi
  403e80:	48 89 c7             	mov    %rax,%rdi
  403e83:	e8 68 fa ff ff       	callq  4038f0 <_ZNSi3getERc@plt>
  403e88:	48 8b 85 48 fe ff ff 	mov    -0x1b8(%rbp),%rax
  403e8f:	48 8b 00             	mov    (%rax),%rax
  403e92:	48 83 e8 18          	sub    $0x18,%rax
  403e96:	48 8b 00             	mov    (%rax),%rax
  403e99:	48 89 c2             	mov    %rax,%rdx
  403e9c:	48 8b 85 48 fe ff ff 	mov    -0x1b8(%rbp),%rax
  403ea3:	48 01 d0             	add    %rdx,%rax
  403ea6:	48 89 c7             	mov    %rax,%rdi
  403ea9:	e8 32 fc ff ff       	callq  403ae0 <_ZNKSt9basic_iosIcSt11char_traitsIcEE3eofEv@plt>
  403eae:	83 f0 01             	xor    $0x1,%eax
  403eb1:	84 c0                	test   %al,%al
  403eb3:	74 31                	je     403ee6 <_ZN6jsonxx12parse_stringERSiRNSt7__cxx1112basic_stringIcSt11char_traitsIcESaIcEEE+0xfb>
  403eb5:	48 8b 85 48 fe ff ff 	mov    -0x1b8(%rbp),%rax
  403ebc:	48 8b 00             	mov    (%rax),%rax
  403ebf:	48 83 e8 18          	sub    $0x18,%rax
  403ec3:	48 8b 00             	mov    (%rax),%rax
  403ec6:	48 89 c2             	mov    %rax,%rdx
  403ec9:	48 8b 85 48 fe ff ff 	mov    -0x1b8(%rbp),%rax
  403ed0:	48 01 d0             	add    %rdx,%rax
  403ed3:	48 89 c7             	mov    %rax,%rdi
  403ed6:	e8 f5 f4 ff ff       	callq  4033d0 <_ZNKSt9basic_iosIcSt11char_traitsIcEE4goodEv@plt>
  403edb:	84 c0                	test   %al,%al
  403edd:	74 07                	je     403ee6 <_ZN6jsonxx12parse_stringERSiRNSt7__cxx1112basic_stringIcSt11char_traitsIcESaIcEEE+0xfb>
  403edf:	b8 01 00 00 00       	mov    $0x1,%eax
  403ee4:	eb 05                	jmp    403eeb <_ZN6jsonxx12parse_stringERSiRNSt7__cxx1112basic_stringIcSt11char_traitsIcESaIcEEE+0x100>
  403ee6:	b8 00 00 00 00       	mov    $0x0,%eax
  403eeb:	84 c0                	test   %al,%al
  403eed:	0f 84 20 03 00 00    	je     404213 <_ZN6jsonxx12parse_stringERSiRNSt7__cxx1112basic_stringIcSt11char_traitsIcESaIcEEE+0x428>
  403ef3:	48 8d 95 5a fe ff ff 	lea    -0x1a6(%rbp),%rdx
  403efa:	48 8b 85 48 fe ff ff 	mov    -0x1b8(%rbp),%rax
  403f01:	48 89 d6             	mov    %rdx,%rsi
  403f04:	48 89 c7             	mov    %rax,%rdi
  403f07:	e8 e4 f9 ff ff       	callq  4038f0 <_ZNSi3getERc@plt>
  403f0c:	0f b6 85 5a fe ff ff 	movzbl -0x1a6(%rbp),%eax
  403f13:	3a 85 5b fe ff ff    	cmp    -0x1a5(%rbp),%al
  403f19:	0f 84 f3 02 00 00    	je     404212 <_ZN6jsonxx12parse_stringERSiRNSt7__cxx1112basic_stringIcSt11char_traitsIcESaIcEEE+0x427>
  403f1f:	0f b6 85 5a fe ff ff 	movzbl -0x1a6(%rbp),%eax
  403f26:	3c 5c                	cmp    $0x5c,%al
  403f28:	0f 85 c4 02 00 00    	jne    4041f2 <_ZN6jsonxx12parse_stringERSiRNSt7__cxx1112basic_stringIcSt11char_traitsIcESaIcEEE+0x407>
  403f2e:	48 8d 95 5a fe ff ff 	lea    -0x1a6(%rbp),%rdx
  403f35:	48 8b 85 48 fe ff ff 	mov    -0x1b8(%rbp),%rax
  403f3c:	48 89 d6             	mov    %rdx,%rsi
  403f3f:	48 89 c7             	mov    %rax,%rdi
  403f42:	e8 a9 f9 ff ff       	callq  4038f0 <_ZNSi3getERc@plt>
  403f47:	0f b6 85 5a fe ff ff 	movzbl -0x1a6(%rbp),%eax
  403f4e:	0f be c0             	movsbl %al,%eax
  403f51:	83 e8 2f             	sub    $0x2f,%eax
  403f54:	83 f8 46             	cmp    $0x46,%eax
  403f57:	0f 87 37 02 00 00    	ja     404194 <_ZN6jsonxx12parse_stringERSiRNSt7__cxx1112basic_stringIcSt11char_traitsIcESaIcEEE+0x3a9>
  403f5d:	89 c0                	mov    %eax,%eax
  403f5f:	48 8b 04 c5 90 c7 41 	mov    0x41c790(,%rax,8),%rax
  403f66:	00 
  403f67:	ff e0                	jmpq   *%rax
  403f69:	0f b6 85 5a fe ff ff 	movzbl -0x1a6(%rbp),%eax
  403f70:	0f be d0             	movsbl %al,%edx
  403f73:	48 8b 85 40 fe ff ff 	mov    -0x1c0(%rbp),%rax
  403f7a:	89 d6                	mov    %edx,%esi
  403f7c:	48 89 c7             	mov    %rax,%rdi
  403f7f:	e8 3c fb ff ff       	callq  403ac0 <_ZNSt7__cxx1112basic_stringIcSt11char_traitsIcESaIcEE9push_backEc@plt>
  403f84:	e9 84 02 00 00       	jmpq   40420d <_ZN6jsonxx12parse_stringERSiRNSt7__cxx1112basic_stringIcSt11char_traitsIcESaIcEEE+0x422>
  403f89:	48 8b 85 40 fe ff ff 	mov    -0x1c0(%rbp),%rax
  403f90:	be 08 00 00 00       	mov    $0x8,%esi
  403f95:	48 89 c7             	mov    %rax,%rdi
  403f98:	e8 23 fb ff ff       	callq  403ac0 <_ZNSt7__cxx1112basic_stringIcSt11char_traitsIcESaIcEE9push_backEc@plt>
  403f9d:	e9 6b 02 00 00       	jmpq   40420d <_ZN6jsonxx12parse_stringERSiRNSt7__cxx1112basic_stringIcSt11char_traitsIcESaIcEEE+0x422>
  403fa2:	48 8b 85 40 fe ff ff 	mov    -0x1c0(%rbp),%rax
  403fa9:	be 0c 00 00 00       	mov    $0xc,%esi
  403fae:	48 89 c7             	mov    %rax,%rdi
  403fb1:	e8 0a fb ff ff       	callq  403ac0 <_ZNSt7__cxx1112basic_stringIcSt11char_traitsIcESaIcEE9push_backEc@plt>
  403fb6:	e9 52 02 00 00       	jmpq   40420d <_ZN6jsonxx12parse_stringERSiRNSt7__cxx1112basic_stringIcSt11char_traitsIcESaIcEEE+0x422>
  403fbb:	48 8b 85 40 fe ff ff 	mov    -0x1c0(%rbp),%rax
  403fc2:	be 0a 00 00 00       	mov    $0xa,%esi
  403fc7:	48 89 c7             	mov    %rax,%rdi
  403fca:	e8 f1 fa ff ff       	callq  403ac0 <_ZNSt7__cxx1112basic_stringIcSt11char_traitsIcESaIcEE9push_backEc@plt>
  403fcf:	e9 39 02 00 00       	jmpq   40420d <_ZN6jsonxx12parse_stringERSiRNSt7__cxx1112basic_stringIcSt11char_traitsIcESaIcEEE+0x422>
  403fd4:	48 8b 85 40 fe ff ff 	mov    -0x1c0(%rbp),%rax
  403fdb:	be 0d 00 00 00       	mov    $0xd,%esi
  403fe0:	48 89 c7             	mov    %rax,%rdi
  403fe3:	e8 d8 fa ff ff       	callq  403ac0 <_ZNSt7__cxx1112basic_stringIcSt11char_traitsIcESaIcEE9push_backEc@plt>
  403fe8:	e9 20 02 00 00       	jmpq   40420d <_ZN6jsonxx12parse_stringERSiRNSt7__cxx1112basic_stringIcSt11char_traitsIcESaIcEEE+0x422>
  403fed:	48 8b 85 40 fe ff ff 	mov    -0x1c0(%rbp),%rax
  403ff4:	be 09 00 00 00       	mov    $0x9,%esi
  403ff9:	48 89 c7             	mov    %rax,%rdi
  403ffc:	e8 bf fa ff ff       	callq  403ac0 <_ZNSt7__cxx1112basic_stringIcSt11char_traitsIcESaIcEE9push_backEc@plt>
  404001:	e9 07 02 00 00       	jmpq   40420d <_ZN6jsonxx12parse_stringERSiRNSt7__cxx1112basic_stringIcSt11char_traitsIcESaIcEEE+0x422>
  404006:	be 08 00 00 00       	mov    $0x8,%esi
  40400b:	bf 10 00 00 00       	mov    $0x10,%edi
  404010:	e8 8f 9d 00 00       	callq  40dda4 <_ZStorSt13_Ios_OpenmodeS_>
  404015:	89 c2                	mov    %eax,%edx
  404017:	48 8d 85 60 fe ff ff 	lea    -0x1a0(%rbp),%rax
  40401e:	89 d6                	mov    %edx,%esi
  404020:	48 89 c7             	mov    %rax,%rdi
  404023:	e8 68 f6 ff ff       	callq  403690 <_ZNSt7__cxx1118basic_stringstreamIcSt11char_traitsIcESaIcEEC1ESt13_Ios_Openmode@plt>
  404028:	c7 85 5c fe ff ff 00 	movl   $0x0,-0x1a4(%rbp)
  40402f:	00 00 00 
  404032:	48 8b 85 48 fe ff ff 	mov    -0x1b8(%rbp),%rax
  404039:	48 8b 00             	mov    (%rax),%rax
  40403c:	48 83 e8 18          	sub    $0x18,%rax
  404040:	48 8b 00             	mov    (%rax),%rax
  404043:	48 89 c2             	mov    %rax,%rdx
  404046:	48 8b 85 48 fe ff ff 	mov    -0x1b8(%rbp),%rax
  40404d:	48 01 d0             	add    %rdx,%rax
  404050:	48 89 c7             	mov    %rax,%rdi
  404053:	e8 88 fa ff ff       	callq  403ae0 <_ZNKSt9basic_iosIcSt11char_traitsIcEE3eofEv@plt>
  404058:	83 f0 01             	xor    $0x1,%eax
  40405b:	84 c0                	test   %al,%al
  40405d:	74 3c                	je     40409b <_ZN6jsonxx12parse_stringERSiRNSt7__cxx1112basic_stringIcSt11char_traitsIcESaIcEEE+0x2b0>
  40405f:	48 8b 85 48 fe ff ff 	mov    -0x1b8(%rbp),%rax
  404066:	48 8b 00             	mov    (%rax),%rax
  404069:	48 83 e8 18          	sub    $0x18,%rax
  40406d:	48 8b 00             	mov    (%rax),%rax
  404070:	48 89 c2             	mov    %rax,%rdx
  404073:	48 8b 85 48 fe ff ff 	mov    -0x1b8(%rbp),%rax
  40407a:	48 01 d0             	add    %rdx,%rax
  40407d:	48 89 c7             	mov    %rax,%rdi
  404080:	e8 4b f3 ff ff       	callq  4033d0 <_ZNKSt9basic_iosIcSt11char_traitsIcEE4goodEv@plt>
  404085:	84 c0                	test   %al,%al
  404087:	74 12                	je     40409b <_ZN6jsonxx12parse_stringERSiRNSt7__cxx1112basic_stringIcSt11char_traitsIcESaIcEEE+0x2b0>
  404089:	8b 85 5c fe ff ff    	mov    -0x1a4(%rbp),%eax
  40408f:	83 f8 03             	cmp    $0x3,%eax
  404092:	7f 07                	jg     40409b <_ZN6jsonxx12parse_stringERSiRNSt7__cxx1112basic_stringIcSt11char_traitsIcESaIcEEE+0x2b0>
  404094:	b8 01 00 00 00       	mov    $0x1,%eax
  404099:	eb 05                	jmp    4040a0 <_ZN6jsonxx12parse_stringERSiRNSt7__cxx1112basic_stringIcSt11char_traitsIcESaIcEEE+0x2b5>
  40409b:	b8 00 00 00 00       	mov    $0x0,%eax
  4040a0:	84 c0                	test   %al,%al
  4040a2:	74 59                	je     4040fd <_ZN6jsonxx12parse_stringERSiRNSt7__cxx1112basic_stringIcSt11char_traitsIcESaIcEEE+0x312>
  4040a4:	48 8d 95 5a fe ff ff 	lea    -0x1a6(%rbp),%rdx
  4040ab:	48 8b 85 48 fe ff ff 	mov    -0x1b8(%rbp),%rax
  4040b2:	48 89 d6             	mov    %rdx,%rsi
  4040b5:	48 89 c7             	mov    %rax,%rdi
  4040b8:	e8 33 f8 ff ff       	callq  4038f0 <_ZNSi3getERc@plt>
  4040bd:	0f b6 85 5a fe ff ff 	movzbl -0x1a6(%rbp),%eax
  4040c4:	0f be d8             	movsbl %al,%ebx
  4040c7:	48 8d 85 60 fe ff ff 	lea    -0x1a0(%rbp),%rax
  4040ce:	48 83 c0 10          	add    $0x10,%rax
  4040d2:	be 42 de 40 00       	mov    $0x40de42,%esi
  4040d7:	48 89 c7             	mov    %rax,%rdi
  4040da:	e8 31 fa ff ff       	callq  403b10 <_ZNSolsEPFRSt8ios_baseS0_E@plt>
  4040df:	89 de                	mov    %ebx,%esi
  4040e1:	48 89 c7             	mov    %rax,%rdi
  4040e4:	e8 f7 f6 ff ff       	callq  4037e0 <_ZStlsISt11char_traitsIcEERSt13basic_ostreamIcT_ES5_c@plt>
  4040e9:	8b 85 5c fe ff ff    	mov    -0x1a4(%rbp),%eax
  4040ef:	83 c0 01             	add    $0x1,%eax
  4040f2:	89 85 5c fe ff ff    	mov    %eax,-0x1a4(%rbp)
  4040f8:	e9 35 ff ff ff       	jmpq   404032 <_ZN6jsonxx12parse_stringERSiRNSt7__cxx1112basic_stringIcSt11char_traitsIcESaIcEEE+0x247>
  4040fd:	48 8b 85 48 fe ff ff 	mov    -0x1b8(%rbp),%rax
  404104:	48 8b 00             	mov    (%rax),%rax
  404107:	48 83 e8 18          	sub    $0x18,%rax
  40410b:	48 8b 00             	mov    (%rax),%rax
  40410e:	48 89 c2             	mov    %rax,%rdx
  404111:	48 8b 85 48 fe ff ff 	mov    -0x1b8(%rbp),%rax
  404118:	48 01 d0             	add    %rdx,%rax
  40411b:	48 89 c7             	mov    %rax,%rdi
  40411e:	e8 ad f2 ff ff       	callq  4033d0 <_ZNKSt9basic_iosIcSt11char_traitsIcEE4goodEv@plt>
  404123:	84 c0                	test   %al,%al
  404125:	74 39                	je     404160 <_ZN6jsonxx12parse_stringERSiRNSt7__cxx1112basic_stringIcSt11char_traitsIcESaIcEEE+0x375>
  404127:	48 8d 95 5c fe ff ff 	lea    -0x1a4(%rbp),%rdx
  40412e:	48 8d 85 60 fe ff ff 	lea    -0x1a0(%rbp),%rax
  404135:	48 89 d6             	mov    %rdx,%rsi
  404138:	48 89 c7             	mov    %rax,%rdi
  40413b:	e8 b0 f9 ff ff       	callq  403af0 <_ZNSirsERi@plt>
  404140:	48 8b 10             	mov    (%rax),%rdx
  404143:	48 83 ea 18          	sub    $0x18,%rdx
  404147:	48 8b 12             	mov    (%rdx),%rdx
  40414a:	48 01 d0             	add    %rdx,%rax
  40414d:	48 89 c7             	mov    %rax,%rdi
  404150:	e8 bb f4 ff ff       	callq  403610 <_ZNKSt9basic_iosIcSt11char_traitsIcEEcvbEv@plt>
  404155:	84 c0                	test   %al,%al
  404157:	74 07                	je     404160 <_ZN6jsonxx12parse_stringERSiRNSt7__cxx1112basic_stringIcSt11char_traitsIcESaIcEEE+0x375>
  404159:	b8 01 00 00 00       	mov    $0x1,%eax
  40415e:	eb 05                	jmp    404165 <_ZN6jsonxx12parse_stringERSiRNSt7__cxx1112basic_stringIcSt11char_traitsIcESaIcEEE+0x37a>
  404160:	b8 00 00 00 00       	mov    $0x0,%eax
  404165:	84 c0                	test   %al,%al
  404167:	74 1a                	je     404183 <_ZN6jsonxx12parse_stringERSiRNSt7__cxx1112basic_stringIcSt11char_traitsIcESaIcEEE+0x398>
  404169:	8b 85 5c fe ff ff    	mov    -0x1a4(%rbp),%eax
  40416f:	0f be d0             	movsbl %al,%edx
  404172:	48 8b 85 40 fe ff ff 	mov    -0x1c0(%rbp),%rax
  404179:	89 d6                	mov    %edx,%esi
  40417b:	48 89 c7             	mov    %rax,%rdi
  40417e:	e8 3d f9 ff ff       	callq  403ac0 <_ZNSt7__cxx1112basic_stringIcSt11char_traitsIcESaIcEE9push_backEc@plt>
  404183:	48 8d 85 60 fe ff ff 	lea    -0x1a0(%rbp),%rax
  40418a:	48 89 c7             	mov    %rax,%rdi
  40418d:	e8 9e f4 ff ff       	callq  403630 <_ZNSt7__cxx1118basic_stringstreamIcSt11char_traitsIcESaIcEED1Ev@plt>
  404192:	eb 79                	jmp    40420d <_ZN6jsonxx12parse_stringERSiRNSt7__cxx1112basic_stringIcSt11char_traitsIcESaIcEEE+0x422>
  404194:	0f b6 85 5a fe ff ff 	movzbl -0x1a6(%rbp),%eax
  40419b:	3a 85 5b fe ff ff    	cmp    -0x1a5(%rbp),%al
  4041a1:	74 31                	je     4041d4 <_ZN6jsonxx12parse_stringERSiRNSt7__cxx1112basic_stringIcSt11char_traitsIcESaIcEEE+0x3e9>
  4041a3:	48 8b 85 40 fe ff ff 	mov    -0x1c0(%rbp),%rax
  4041aa:	be 5c 00 00 00       	mov    $0x5c,%esi
  4041af:	48 89 c7             	mov    %rax,%rdi
  4041b2:	e8 09 f9 ff ff       	callq  403ac0 <_ZNSt7__cxx1112basic_stringIcSt11char_traitsIcESaIcEE9push_backEc@plt>
  4041b7:	0f b6 85 5a fe ff ff 	movzbl -0x1a6(%rbp),%eax
  4041be:	0f be d0             	movsbl %al,%edx
  4041c1:	48 8b 85 40 fe ff ff 	mov    -0x1c0(%rbp),%rax
  4041c8:	89 d6                	mov    %edx,%esi
  4041ca:	48 89 c7             	mov    %rax,%rdi
  4041cd:	e8 ee f8 ff ff       	callq  403ac0 <_ZNSt7__cxx1112basic_stringIcSt11char_traitsIcESaIcEE9push_backEc@plt>
  4041d2:	eb 39                	jmp    40420d <_ZN6jsonxx12parse_stringERSiRNSt7__cxx1112basic_stringIcSt11char_traitsIcESaIcEEE+0x422>
  4041d4:	0f b6 85 5a fe ff ff 	movzbl -0x1a6(%rbp),%eax
  4041db:	0f be d0             	movsbl %al,%edx
  4041de:	48 8b 85 40 fe ff ff 	mov    -0x1c0(%rbp),%rax
  4041e5:	89 d6                	mov    %edx,%esi
  4041e7:	48 89 c7             	mov    %rax,%rdi
  4041ea:	e8 d1 f8 ff ff       	callq  403ac0 <_ZNSt7__cxx1112basic_stringIcSt11char_traitsIcESaIcEE9push_backEc@plt>
  4041ef:	90                   	nop
  4041f0:	eb 1b                	jmp    40420d <_ZN6jsonxx12parse_stringERSiRNSt7__cxx1112basic_stringIcSt11char_traitsIcESaIcEEE+0x422>
  4041f2:	0f b6 85 5a fe ff ff 	movzbl -0x1a6(%rbp),%eax
  4041f9:	0f be d0             	movsbl %al,%edx
  4041fc:	48 8b 85 40 fe ff ff 	mov    -0x1c0(%rbp),%rax
  404203:	89 d6                	mov    %edx,%esi
  404205:	48 89 c7             	mov    %rax,%rdi
  404208:	e8 b3 f8 ff ff       	callq  403ac0 <_ZNSt7__cxx1112basic_stringIcSt11char_traitsIcESaIcEE9push_backEc@plt>
  40420d:	e9 76 fc ff ff       	jmpq   403e88 <_ZN6jsonxx12parse_stringERSiRNSt7__cxx1112basic_stringIcSt11char_traitsIcESaIcEEE+0x9d>
  404212:	90                   	nop
  404213:	48 8b 85 48 fe ff ff 	mov    -0x1b8(%rbp),%rax
  40421a:	48 8b 00             	mov    (%rax),%rax
  40421d:	48 83 e8 18          	sub    $0x18,%rax
  404221:	48 8b 00             	mov    (%rax),%rax
  404224:	48 89 c2             	mov    %rax,%rdx
  404227:	48 8b 85 48 fe ff ff 	mov    -0x1b8(%rbp),%rax
  40422e:	48 01 d0             	add    %rdx,%rax
  404231:	48 89 c7             	mov    %rax,%rdi
  404234:	e8 d7 f3 ff ff       	callq  403610 <_ZNKSt9basic_iosIcSt11char_traitsIcEEcvbEv@plt>
  404239:	84 c0                	test   %al,%al
  40423b:	74 16                	je     404253 <_ZN6jsonxx12parse_stringERSiRNSt7__cxx1112basic_stringIcSt11char_traitsIcESaIcEEE+0x468>
  40423d:	0f b6 85 5a fe ff ff 	movzbl -0x1a6(%rbp),%eax
  404244:	3a 85 5b fe ff ff    	cmp    -0x1a5(%rbp),%al
  40424a:	75 07                	jne    404253 <_ZN6jsonxx12parse_stringERSiRNSt7__cxx1112basic_stringIcSt11char_traitsIcESaIcEEE+0x468>
  40424c:	b8 01 00 00 00       	mov    $0x1,%eax
  404251:	eb 05                	jmp    404258 <_ZN6jsonxx12parse_stringERSiRNSt7__cxx1112basic_stringIcSt11char_traitsIcESaIcEEE+0x46d>
  404253:	b8 00 00 00 00       	mov    $0x0,%eax
  404258:	84 c0                	test   %al,%al
  40425a:	74 07                	je     404263 <_ZN6jsonxx12parse_stringERSiRNSt7__cxx1112basic_stringIcSt11char_traitsIcESaIcEEE+0x478>
  40425c:	b8 01 00 00 00       	mov    $0x1,%eax
  404261:	eb 05                	jmp    404268 <_ZN6jsonxx12parse_stringERSiRNSt7__cxx1112basic_stringIcSt11char_traitsIcESaIcEEE+0x47d>
  404263:	b8 00 00 00 00       	mov    $0x0,%eax
  404268:	48 8b 4d e8          	mov    -0x18(%rbp),%rcx
  40426c:	64 48 33 0c 25 28 00 	xor    %fs:0x28,%rcx
  404273:	00 00 
  404275:	74 24                	je     40429b <_ZN6jsonxx12parse_stringERSiRNSt7__cxx1112basic_stringIcSt11char_traitsIcESaIcEEE+0x4b0>
  404277:	eb 1d                	jmp    404296 <_ZN6jsonxx12parse_stringERSiRNSt7__cxx1112basic_stringIcSt11char_traitsIcESaIcEEE+0x4ab>
  404279:	48 89 c3             	mov    %rax,%rbx
  40427c:	48 8d 85 60 fe ff ff 	lea    -0x1a0(%rbp),%rax
  404283:	48 89 c7             	mov    %rax,%rdi
  404286:	e8 a5 f3 ff ff       	callq  403630 <_ZNSt7__cxx1118basic_stringstreamIcSt11char_traitsIcESaIcEED1Ev@plt>
  40428b:	48 89 d8             	mov    %rbx,%rax
  40428e:	48 89 c7             	mov    %rax,%rdi
  404291:	e8 2a f5 ff ff       	callq  4037c0 <_Unwind_Resume@plt>
  404296:	e8 05 f3 ff ff       	callq  4035a0 <__stack_chk_fail@plt>
  40429b:	48 81 c4 b8 01 00 00 	add    $0x1b8,%rsp
  4042a2:	5b                   	pop    %rbx
  4042a3:	5d                   	pop    %rbp
  4042a4:	c3                   	retq   

00000000004042a5 <_ZN6jsonxx16parse_identifierERSiRNSt7__cxx1112basic_stringIcSt11char_traitsIcESaIcEEE>:
  4042a5:	55                   	push   %rbp
  4042a6:	48 89 e5             	mov    %rsp,%rbp
  4042a9:	48 83 ec 20          	sub    $0x20,%rsp
  4042ad:	48 89 7d e8          	mov    %rdi,-0x18(%rbp)
  4042b1:	48 89 75 e0          	mov    %rsi,-0x20(%rbp)
  4042b5:	64 48 8b 04 25 28 00 	mov    %fs:0x28,%rax
  4042bc:	00 00 
  4042be:	48 89 45 f8          	mov    %rax,-0x8(%rbp)
  4042c2:	31 c0                	xor    %eax,%eax
  4042c4:	48 8b 45 e8          	mov    -0x18(%rbp),%rax
  4042c8:	be 30 37 40 00       	mov    $0x403730,%esi
  4042cd:	48 89 c7             	mov    %rax,%rdi
  4042d0:	e8 1b f7 ff ff       	callq  4039f0 <_ZNSirsEPFRSiS_E@plt>
  4042d5:	c6 45 f5 00          	movb   $0x0,-0xb(%rbp)
  4042d9:	c6 45 f7 3a          	movb   $0x3a,-0x9(%rbp)
  4042dd:	c6 45 f6 01          	movb   $0x1,-0xa(%rbp)
  4042e1:	48 8b 45 e8          	mov    -0x18(%rbp),%rax
  4042e5:	48 8b 00             	mov    (%rax),%rax
  4042e8:	48 83 e8 18          	sub    $0x18,%rax
  4042ec:	48 8b 00             	mov    (%rax),%rax
  4042ef:	48 89 c2             	mov    %rax,%rdx
  4042f2:	48 8b 45 e8          	mov    -0x18(%rbp),%rax
  4042f6:	48 01 d0             	add    %rdx,%rax
  4042f9:	48 89 c7             	mov    %rax,%rdi
  4042fc:	e8 df f7 ff ff       	callq  403ae0 <_ZNKSt9basic_iosIcSt11char_traitsIcEE3eofEv@plt>
  404301:	83 f0 01             	xor    $0x1,%eax
  404304:	84 c0                	test   %al,%al
  404306:	74 2b                	je     404333 <_ZN6jsonxx16parse_identifierERSiRNSt7__cxx1112basic_stringIcSt11char_traitsIcESaIcEEE+0x8e>
  404308:	48 8b 45 e8          	mov    -0x18(%rbp),%rax
  40430c:	48 8b 00             	mov    (%rax),%rax
  40430f:	48 83 e8 18          	sub    $0x18,%rax
  404313:	48 8b 00             	mov    (%rax),%rax
  404316:	48 89 c2             	mov    %rax,%rdx
  404319:	48 8b 45 e8          	mov    -0x18(%rbp),%rax
  40431d:	48 01 d0             	add    %rdx,%rax
  404320:	48 89 c7             	mov    %rax,%rdi
  404323:	e8 a8 f0 ff ff       	callq  4033d0 <_ZNKSt9basic_iosIcSt11char_traitsIcEE4goodEv@plt>
  404328:	84 c0                	test   %al,%al
  40432a:	74 07                	je     404333 <_ZN6jsonxx16parse_identifierERSiRNSt7__cxx1112basic_stringIcSt11char_traitsIcESaIcEEE+0x8e>
  40432c:	b8 01 00 00 00       	mov    $0x1,%eax
  404331:	eb 05                	jmp    404338 <_ZN6jsonxx16parse_identifierERSiRNSt7__cxx1112basic_stringIcSt11char_traitsIcESaIcEEE+0x93>
  404333:	b8 00 00 00 00       	mov    $0x0,%eax
  404338:	84 c0                	test   %al,%al
  40433a:	0f 84 f2 00 00 00    	je     404432 <_ZN6jsonxx16parse_identifierERSiRNSt7__cxx1112basic_stringIcSt11char_traitsIcESaIcEEE+0x18d>
  404340:	48 8d 55 f5          	lea    -0xb(%rbp),%rdx
  404344:	48 8b 45 e8          	mov    -0x18(%rbp),%rax
  404348:	48 89 d6             	mov    %rdx,%rsi
  40434b:	48 89 c7             	mov    %rax,%rdi
  40434e:	e8 9d f5 ff ff       	callq  4038f0 <_ZNSi3getERc@plt>
  404353:	0f b6 45 f5          	movzbl -0xb(%rbp),%eax
  404357:	3a 45 f7             	cmp    -0x9(%rbp),%al
  40435a:	75 11                	jne    40436d <_ZN6jsonxx16parse_identifierERSiRNSt7__cxx1112basic_stringIcSt11char_traitsIcESaIcEEE+0xc8>
  40435c:	48 8b 45 e8          	mov    -0x18(%rbp),%rax
  404360:	48 89 c7             	mov    %rax,%rdi
  404363:	e8 48 f4 ff ff       	callq  4037b0 <_ZNSi5ungetEv@plt>
  404368:	e9 c5 00 00 00       	jmpq   404432 <_ZN6jsonxx16parse_identifierERSiRNSt7__cxx1112basic_stringIcSt11char_traitsIcESaIcEEE+0x18d>
  40436d:	80 7d f6 00          	cmpb   $0x0,-0xa(%rbp)
  404371:	74 3e                	je     4043b1 <_ZN6jsonxx16parse_identifierERSiRNSt7__cxx1112basic_stringIcSt11char_traitsIcESaIcEEE+0x10c>
  404373:	0f b6 45 f5          	movzbl -0xb(%rbp),%eax
  404377:	3c 5f                	cmp    $0x5f,%al
  404379:	74 32                	je     4043ad <_ZN6jsonxx16parse_identifierERSiRNSt7__cxx1112basic_stringIcSt11char_traitsIcESaIcEEE+0x108>
  40437b:	0f b6 45 f5          	movzbl -0xb(%rbp),%eax
  40437f:	3c 24                	cmp    $0x24,%al
  404381:	74 2a                	je     4043ad <_ZN6jsonxx16parse_identifierERSiRNSt7__cxx1112basic_stringIcSt11char_traitsIcESaIcEEE+0x108>
  404383:	0f b6 45 f5          	movzbl -0xb(%rbp),%eax
  404387:	3c 60                	cmp    $0x60,%al
  404389:	7e 08                	jle    404393 <_ZN6jsonxx16parse_identifierERSiRNSt7__cxx1112basic_stringIcSt11char_traitsIcESaIcEEE+0xee>
  40438b:	0f b6 45 f5          	movzbl -0xb(%rbp),%eax
  40438f:	3c 7a                	cmp    $0x7a,%al
  404391:	7e 1a                	jle    4043ad <_ZN6jsonxx16parse_identifierERSiRNSt7__cxx1112basic_stringIcSt11char_traitsIcESaIcEEE+0x108>
  404393:	0f b6 45 f5          	movzbl -0xb(%rbp),%eax
  404397:	3c 40                	cmp    $0x40,%al
  404399:	7e 08                	jle    4043a3 <_ZN6jsonxx16parse_identifierERSiRNSt7__cxx1112basic_stringIcSt11char_traitsIcESaIcEEE+0xfe>
  40439b:	0f b6 45 f5          	movzbl -0xb(%rbp),%eax
  40439f:	3c 5a                	cmp    $0x5a,%al
  4043a1:	7e 0a                	jle    4043ad <_ZN6jsonxx16parse_identifierERSiRNSt7__cxx1112basic_stringIcSt11char_traitsIcESaIcEEE+0x108>
  4043a3:	b8 00 00 00 00       	mov    $0x0,%eax
  4043a8:	e9 ce 00 00 00       	jmpq   40447b <_ZN6jsonxx16parse_identifierERSiRNSt7__cxx1112basic_stringIcSt11char_traitsIcESaIcEEE+0x1d6>
  4043ad:	c6 45 f6 00          	movb   $0x0,-0xa(%rbp)
  4043b1:	0f b6 45 f5          	movzbl -0xb(%rbp),%eax
  4043b5:	3c 5f                	cmp    $0x5f,%al
  4043b7:	74 38                	je     4043f1 <_ZN6jsonxx16parse_identifierERSiRNSt7__cxx1112basic_stringIcSt11char_traitsIcESaIcEEE+0x14c>
  4043b9:	0f b6 45 f5          	movzbl -0xb(%rbp),%eax
  4043bd:	3c 24                	cmp    $0x24,%al
  4043bf:	74 30                	je     4043f1 <_ZN6jsonxx16parse_identifierERSiRNSt7__cxx1112basic_stringIcSt11char_traitsIcESaIcEEE+0x14c>
  4043c1:	0f b6 45 f5          	movzbl -0xb(%rbp),%eax
  4043c5:	3c 60                	cmp    $0x60,%al
  4043c7:	7e 08                	jle    4043d1 <_ZN6jsonxx16parse_identifierERSiRNSt7__cxx1112basic_stringIcSt11char_traitsIcESaIcEEE+0x12c>
  4043c9:	0f b6 45 f5          	movzbl -0xb(%rbp),%eax
  4043cd:	3c 7a                	cmp    $0x7a,%al
  4043cf:	7e 20                	jle    4043f1 <_ZN6jsonxx16parse_identifierERSiRNSt7__cxx1112basic_stringIcSt11char_traitsIcESaIcEEE+0x14c>
  4043d1:	0f b6 45 f5          	movzbl -0xb(%rbp),%eax
  4043d5:	3c 40                	cmp    $0x40,%al
  4043d7:	7e 08                	jle    4043e1 <_ZN6jsonxx16parse_identifierERSiRNSt7__cxx1112basic_stringIcSt11char_traitsIcESaIcEEE+0x13c>
  4043d9:	0f b6 45 f5          	movzbl -0xb(%rbp),%eax
  4043dd:	3c 5a                	cmp    $0x5a,%al
  4043df:	7e 10                	jle    4043f1 <_ZN6jsonxx16parse_identifierERSiRNSt7__cxx1112basic_stringIcSt11char_traitsIcESaIcEEE+0x14c>
  4043e1:	0f b6 45 f5          	movzbl -0xb(%rbp),%eax
  4043e5:	3c 2f                	cmp    $0x2f,%al
  4043e7:	7e 1f                	jle    404408 <_ZN6jsonxx16parse_identifierERSiRNSt7__cxx1112basic_stringIcSt11char_traitsIcESaIcEEE+0x163>
  4043e9:	0f b6 45 f5          	movzbl -0xb(%rbp),%eax
  4043ed:	3c 39                	cmp    $0x39,%al
  4043ef:	7f 17                	jg     404408 <_ZN6jsonxx16parse_identifierERSiRNSt7__cxx1112basic_stringIcSt11char_traitsIcESaIcEEE+0x163>
  4043f1:	0f b6 45 f5          	movzbl -0xb(%rbp),%eax
  4043f5:	0f be d0             	movsbl %al,%edx
  4043f8:	48 8b 45 e0          	mov    -0x20(%rbp),%rax
  4043fc:	89 d6                	mov    %edx,%esi
  4043fe:	48 89 c7             	mov    %rax,%rdi
  404401:	e8 ba f6 ff ff       	callq  403ac0 <_ZNSt7__cxx1112basic_stringIcSt11char_traitsIcESaIcEE9push_backEc@plt>
  404406:	eb 25                	jmp    40442d <_ZN6jsonxx16parse_identifierERSiRNSt7__cxx1112basic_stringIcSt11char_traitsIcESaIcEEE+0x188>
  404408:	0f b6 45 f5          	movzbl -0xb(%rbp),%eax
  40440c:	3c 09                	cmp    $0x9,%al
  40440e:	74 0c                	je     40441c <_ZN6jsonxx16parse_identifierERSiRNSt7__cxx1112basic_stringIcSt11char_traitsIcESaIcEEE+0x177>
  404410:	0f b6 45 f5          	movzbl -0xb(%rbp),%eax
  404414:	3c 20                	cmp    $0x20,%al
  404416:	0f 85 c5 fe ff ff    	jne    4042e1 <_ZN6jsonxx16parse_identifierERSiRNSt7__cxx1112basic_stringIcSt11char_traitsIcESaIcEEE+0x3c>
  40441c:	48 8b 45 e8          	mov    -0x18(%rbp),%rax
  404420:	be 30 37 40 00       	mov    $0x403730,%esi
  404425:	48 89 c7             	mov    %rax,%rdi
  404428:	e8 c3 f5 ff ff       	callq  4039f0 <_ZNSirsEPFRSiS_E@plt>
  40442d:	e9 af fe ff ff       	jmpq   4042e1 <_ZN6jsonxx16parse_identifierERSiRNSt7__cxx1112basic_stringIcSt11char_traitsIcESaIcEEE+0x3c>
  404432:	48 8b 45 e8          	mov    -0x18(%rbp),%rax
  404436:	48 8b 00             	mov    (%rax),%rax
  404439:	48 83 e8 18          	sub    $0x18,%rax
  40443d:	48 8b 00             	mov    (%rax),%rax
  404440:	48 89 c2             	mov    %rax,%rdx
  404443:	48 8b 45 e8          	mov    -0x18(%rbp),%rax
  404447:	48 01 d0             	add    %rdx,%rax
  40444a:	48 89 c7             	mov    %rax,%rdi
  40444d:	e8 be f1 ff ff       	callq  403610 <_ZNKSt9basic_iosIcSt11char_traitsIcEEcvbEv@plt>
  404452:	84 c0                	test   %al,%al
  404454:	74 10                	je     404466 <_ZN6jsonxx16parse_identifierERSiRNSt7__cxx1112basic_stringIcSt11char_traitsIcESaIcEEE+0x1c1>
  404456:	0f b6 45 f5          	movzbl -0xb(%rbp),%eax
  40445a:	3a 45 f7             	cmp    -0x9(%rbp),%al
  40445d:	75 07                	jne    404466 <_ZN6jsonxx16parse_identifierERSiRNSt7__cxx1112basic_stringIcSt11char_traitsIcESaIcEEE+0x1c1>
  40445f:	b8 01 00 00 00       	mov    $0x1,%eax
  404464:	eb 05                	jmp    40446b <_ZN6jsonxx16parse_identifierERSiRNSt7__cxx1112basic_stringIcSt11char_traitsIcESaIcEEE+0x1c6>
  404466:	b8 00 00 00 00       	mov    $0x0,%eax
  40446b:	84 c0                	test   %al,%al
  40446d:	74 07                	je     404476 <_ZN6jsonxx16parse_identifierERSiRNSt7__cxx1112basic_stringIcSt11char_traitsIcESaIcEEE+0x1d1>
  40446f:	b8 01 00 00 00       	mov    $0x1,%eax
  404474:	eb 05                	jmp    40447b <_ZN6jsonxx16parse_identifierERSiRNSt7__cxx1112basic_stringIcSt11char_traitsIcESaIcEEE+0x1d6>
  404476:	b8 00 00 00 00       	mov    $0x0,%eax
  40447b:	48 8b 4d f8          	mov    -0x8(%rbp),%rcx
  40447f:	64 48 33 0c 25 28 00 	xor    %fs:0x28,%rcx
  404486:	00 00 
  404488:	74 05                	je     40448f <_ZN6jsonxx16parse_identifierERSiRNSt7__cxx1112basic_stringIcSt11char_traitsIcESaIcEEE+0x1ea>
  40448a:	e8 11 f1 ff ff       	callq  4035a0 <__stack_chk_fail@plt>
  40448f:	c9                   	leaveq 
  404490:	c3                   	retq   

0000000000404491 <_ZN6jsonxx12parse_numberERSiRe>:
  404491:	55                   	push   %rbp
  404492:	48 89 e5             	mov    %rsp,%rbp
  404495:	48 83 ec 30          	sub    $0x30,%rsp
  404499:	48 89 7d d8          	mov    %rdi,-0x28(%rbp)
  40449d:	48 89 75 d0          	mov    %rsi,-0x30(%rbp)
  4044a1:	64 48 8b 04 25 28 00 	mov    %fs:0x28,%rax
  4044a8:	00 00 
  4044aa:	48 89 45 f8          	mov    %rax,-0x8(%rbp)
  4044ae:	31 c0                	xor    %eax,%eax
  4044b0:	48 8b 45 d8          	mov    -0x28(%rbp),%rax
  4044b4:	be 30 37 40 00       	mov    $0x403730,%esi
  4044b9:	48 89 c7             	mov    %rax,%rdi
  4044bc:	e8 2f f5 ff ff       	callq  4039f0 <_ZNSirsEPFRSiS_E@plt>
  4044c1:	48 8b 45 d8          	mov    -0x28(%rbp),%rax
  4044c5:	48 89 c7             	mov    %rax,%rdi
  4044c8:	e8 e3 ef ff ff       	callq  4034b0 <_ZNSi5tellgEv@plt>
  4044cd:	48 89 45 e0          	mov    %rax,-0x20(%rbp)
  4044d1:	48 89 55 e8          	mov    %rdx,-0x18(%rbp)
  4044d5:	48 8b 55 d0          	mov    -0x30(%rbp),%rdx
  4044d9:	48 8b 45 d8          	mov    -0x28(%rbp),%rax
  4044dd:	48 89 d6             	mov    %rdx,%rsi
  4044e0:	48 89 c7             	mov    %rax,%rdi
  4044e3:	e8 38 f5 ff ff       	callq  403a20 <_ZNSirsERe@plt>
  4044e8:	48 8b 45 d8          	mov    -0x28(%rbp),%rax
  4044ec:	48 8b 00             	mov    (%rax),%rax
  4044ef:	48 83 e8 18          	sub    $0x18,%rax
  4044f3:	48 8b 00             	mov    (%rax),%rax
  4044f6:	48 89 c2             	mov    %rax,%rdx
  4044f9:	48 8b 45 d8          	mov    -0x28(%rbp),%rax
  4044fd:	48 01 d0             	add    %rdx,%rax
  404500:	48 89 c7             	mov    %rax,%rdi
  404503:	e8 f8 f4 ff ff       	callq  403a00 <_ZNKSt9basic_iosIcSt11char_traitsIcEE4failEv@plt>
  404508:	84 c0                	test   %al,%al
  40450a:	74 43                	je     40454f <_ZN6jsonxx12parse_numberERSiRe+0xbe>
  40450c:	48 8b 45 d8          	mov    -0x28(%rbp),%rax
  404510:	48 8b 00             	mov    (%rax),%rax
  404513:	48 83 e8 18          	sub    $0x18,%rax
  404517:	48 8b 00             	mov    (%rax),%rax
  40451a:	48 89 c2             	mov    %rax,%rdx
  40451d:	48 8b 45 d8          	mov    -0x28(%rbp),%rax
  404521:	48 01 d0             	add    %rdx,%rax
  404524:	be 00 00 00 00       	mov    $0x0,%esi
  404529:	48 89 c7             	mov    %rax,%rdi
  40452c:	e8 3f f5 ff ff       	callq  403a70 <_ZNSt9basic_iosIcSt11char_traitsIcEE5clearESt12_Ios_Iostate@plt>
  404531:	48 8b 4d e0          	mov    -0x20(%rbp),%rcx
  404535:	48 8b 55 e8          	mov    -0x18(%rbp),%rdx
  404539:	48 8b 45 d8          	mov    -0x28(%rbp),%rax
  40453d:	48 89 ce             	mov    %rcx,%rsi
  404540:	48 89 c7             	mov    %rax,%rdi
  404543:	e8 08 f2 ff ff       	callq  403750 <_ZNSi5seekgESt4fposI11__mbstate_tE@plt>
  404548:	b8 00 00 00 00       	mov    $0x0,%eax
  40454d:	eb 05                	jmp    404554 <_ZN6jsonxx12parse_numberERSiRe+0xc3>
  40454f:	b8 01 00 00 00       	mov    $0x1,%eax
  404554:	48 8b 4d f8          	mov    -0x8(%rbp),%rcx
  404558:	64 48 33 0c 25 28 00 	xor    %fs:0x28,%rcx
  40455f:	00 00 
  404561:	74 05                	je     404568 <_ZN6jsonxx12parse_numberERSiRe+0xd7>
  404563:	e8 38 f0 ff ff       	callq  4035a0 <__stack_chk_fail@plt>
  404568:	c9                   	leaveq 
  404569:	c3                   	retq   

000000000040456a <_ZN6jsonxx10parse_boolERSiRb>:
  40456a:	55                   	push   %rbp
  40456b:	48 89 e5             	mov    %rsp,%rbp
  40456e:	48 83 ec 10          	sub    $0x10,%rsp
  404572:	48 89 7d f8          	mov    %rdi,-0x8(%rbp)
  404576:	48 89 75 f0          	mov    %rsi,-0x10(%rbp)
  40457a:	48 8b 45 f8          	mov    -0x8(%rbp),%rax
  40457e:	48 89 c6             	mov    %rax,%rsi
  404581:	bf c8 c9 41 00       	mov    $0x41c9c8,%edi
  404586:	e8 11 f7 ff ff       	callq  403c9c <_ZN6jsonxx5matchEPKcRSi>
  40458b:	84 c0                	test   %al,%al
  40458d:	74 0e                	je     40459d <_ZN6jsonxx10parse_boolERSiRb+0x33>
  40458f:	48 8b 45 f0          	mov    -0x10(%rbp),%rax
  404593:	c6 00 01             	movb   $0x1,(%rax)
  404596:	b8 01 00 00 00       	mov    $0x1,%eax
  40459b:	eb 28                	jmp    4045c5 <_ZN6jsonxx10parse_boolERSiRb+0x5b>
  40459d:	48 8b 45 f8          	mov    -0x8(%rbp),%rax
  4045a1:	48 89 c6             	mov    %rax,%rsi
  4045a4:	bf cd c9 41 00       	mov    $0x41c9cd,%edi
  4045a9:	e8 ee f6 ff ff       	callq  403c9c <_ZN6jsonxx5matchEPKcRSi>
  4045ae:	84 c0                	test   %al,%al
  4045b0:	74 0e                	je     4045c0 <_ZN6jsonxx10parse_boolERSiRb+0x56>
  4045b2:	48 8b 45 f0          	mov    -0x10(%rbp),%rax
  4045b6:	c6 00 00             	movb   $0x0,(%rax)
  4045b9:	b8 01 00 00 00       	mov    $0x1,%eax
  4045be:	eb 05                	jmp    4045c5 <_ZN6jsonxx10parse_boolERSiRb+0x5b>
  4045c0:	b8 00 00 00 00       	mov    $0x0,%eax
  4045c5:	c9                   	leaveq 
  4045c6:	c3                   	retq   

00000000004045c7 <_ZN6jsonxx10parse_nullERSi>:
  4045c7:	55                   	push   %rbp
  4045c8:	48 89 e5             	mov    %rsp,%rbp
  4045cb:	48 83 ec 10          	sub    $0x10,%rsp
  4045cf:	48 89 7d f8          	mov    %rdi,-0x8(%rbp)
  4045d3:	48 8b 45 f8          	mov    -0x8(%rbp),%rax
  4045d7:	48 89 c6             	mov    %rax,%rsi
  4045da:	bf d3 c9 41 00       	mov    $0x41c9d3,%edi
  4045df:	e8 b8 f6 ff ff       	callq  403c9c <_ZN6jsonxx5matchEPKcRSi>
  4045e4:	84 c0                	test   %al,%al
  4045e6:	74 07                	je     4045ef <_ZN6jsonxx10parse_nullERSi+0x28>
  4045e8:	b8 01 00 00 00       	mov    $0x1,%eax
  4045ed:	eb 12                	jmp    404601 <_ZN6jsonxx10parse_nullERSi+0x3a>
  4045ef:	48 8b 45 f8          	mov    -0x8(%rbp),%rax
  4045f3:	48 89 c7             	mov    %rax,%rdi
  4045f6:	e8 55 f4 ff ff       	callq  403a50 <_ZNSi4peekEv@plt>
  4045fb:	83 f8 2c             	cmp    $0x2c,%eax
  4045fe:	0f 94 c0             	sete   %al
  404601:	c9                   	leaveq 
  404602:	c3                   	retq   

0000000000404603 <_ZN6jsonxx11parse_arrayERSiRNS_5ArrayE>:
  404603:	55                   	push   %rbp
  404604:	48 89 e5             	mov    %rsp,%rbp
  404607:	48 83 ec 10          	sub    $0x10,%rsp
  40460b:	48 89 7d f8          	mov    %rdi,-0x8(%rbp)
  40460f:	48 89 75 f0          	mov    %rsi,-0x10(%rbp)
  404613:	48 8b 55 f8          	mov    -0x8(%rbp),%rdx
  404617:	48 8b 45 f0          	mov    -0x10(%rbp),%rax
  40461b:	48 89 d6             	mov    %rdx,%rsi
  40461e:	48 89 c7             	mov    %rax,%rdi
  404621:	e8 10 67 00 00       	callq  40ad36 <_ZN6jsonxx5Array5parseERSi>
  404626:	c9                   	leaveq 
  404627:	c3                   	retq   

0000000000404628 <_ZN6jsonxx12parse_objectERSiRNS_6ObjectE>:
  404628:	55                   	push   %rbp
  404629:	48 89 e5             	mov    %rsp,%rbp
  40462c:	48 83 ec 10          	sub    $0x10,%rsp
  404630:	48 89 7d f8          	mov    %rdi,-0x8(%rbp)
  404634:	48 89 75 f0          	mov    %rsi,-0x10(%rbp)
  404638:	48 8b 55 f8          	mov    -0x8(%rbp),%rdx
  40463c:	48 8b 45 f0          	mov    -0x10(%rbp),%rax
  404640:	48 89 d6             	mov    %rdx,%rsi
  404643:	48 89 c7             	mov    %rax,%rdi
  404646:	e8 b3 62 00 00       	callq  40a8fe <_ZN6jsonxx6Object5parseERSi>
  40464b:	c9                   	leaveq 
  40464c:	c3                   	retq   

000000000040464d <_ZN6jsonxx13parse_commentERSi>:
  40464d:	55                   	push   %rbp
  40464e:	48 89 e5             	mov    %rsp,%rbp
  404651:	48 83 ec 20          	sub    $0x20,%rsp
  404655:	48 89 7d e8          	mov    %rdi,-0x18(%rbp)
  404659:	64 48 8b 04 25 28 00 	mov    %fs:0x28,%rax
  404660:	00 00 
  404662:	48 89 45 f8          	mov    %rax,-0x8(%rbp)
  404666:	31 c0                	xor    %eax,%eax
  404668:	48 8b 45 e8          	mov    -0x18(%rbp),%rax
  40466c:	48 8b 00             	mov    (%rax),%rax
  40466f:	48 83 e8 18          	sub    $0x18,%rax
  404673:	48 8b 00             	mov    (%rax),%rax
  404676:	48 89 c2             	mov    %rax,%rdx
  404679:	48 8b 45 e8          	mov    -0x18(%rbp),%rax
  40467d:	48 01 d0             	add    %rdx,%rax
  404680:	48 89 c7             	mov    %rax,%rdi
  404683:	e8 58 f4 ff ff       	callq  403ae0 <_ZNKSt9basic_iosIcSt11char_traitsIcEE3eofEv@plt>
  404688:	83 f0 01             	xor    $0x1,%eax
  40468b:	84 c0                	test   %al,%al
  40468d:	74 18                	je     4046a7 <_ZN6jsonxx13parse_commentERSi+0x5a>
  40468f:	48 8b 45 e8          	mov    -0x18(%rbp),%rax
  404693:	48 89 c7             	mov    %rax,%rdi
  404696:	e8 b5 f3 ff ff       	callq  403a50 <_ZNSi4peekEv@plt>
  40469b:	83 f8 2f             	cmp    $0x2f,%eax
  40469e:	75 07                	jne    4046a7 <_ZN6jsonxx13parse_commentERSi+0x5a>
  4046a0:	b8 01 00 00 00       	mov    $0x1,%eax
  4046a5:	eb 05                	jmp    4046ac <_ZN6jsonxx13parse_commentERSi+0x5f>
  4046a7:	b8 00 00 00 00       	mov    $0x0,%eax
  4046ac:	84 c0                	test   %al,%al
  4046ae:	0f 84 84 01 00 00    	je     404838 <_ZN6jsonxx13parse_commentERSi+0x1eb>
  4046b4:	c6 45 f5 00          	movb   $0x0,-0xb(%rbp)
  4046b8:	48 8d 55 f5          	lea    -0xb(%rbp),%rdx
  4046bc:	48 8b 45 e8          	mov    -0x18(%rbp),%rax
  4046c0:	48 89 d6             	mov    %rdx,%rsi
  4046c3:	48 89 c7             	mov    %rax,%rdi
  4046c6:	e8 25 f2 ff ff       	callq  4038f0 <_ZNSi3getERc@plt>
  4046cb:	48 8b 45 e8          	mov    -0x18(%rbp),%rax
  4046cf:	48 8b 00             	mov    (%rax),%rax
  4046d2:	48 83 e8 18          	sub    $0x18,%rax
  4046d6:	48 8b 00             	mov    (%rax),%rax
  4046d9:	48 89 c2             	mov    %rax,%rdx
  4046dc:	48 8b 45 e8          	mov    -0x18(%rbp),%rax
  4046e0:	48 01 d0             	add    %rdx,%rax
  4046e3:	48 89 c7             	mov    %rax,%rdi
  4046e6:	e8 f5 f3 ff ff       	callq  403ae0 <_ZNKSt9basic_iosIcSt11char_traitsIcEE3eofEv@plt>
  4046eb:	83 f0 01             	xor    $0x1,%eax
  4046ee:	84 c0                	test   %al,%al
  4046f0:	0f 84 11 01 00 00    	je     404807 <_ZN6jsonxx13parse_commentERSi+0x1ba>
  4046f6:	c6 45 f6 00          	movb   $0x0,-0xa(%rbp)
  4046fa:	48 8d 55 f6          	lea    -0xa(%rbp),%rdx
  4046fe:	48 8b 45 e8          	mov    -0x18(%rbp),%rax
  404702:	48 89 d6             	mov    %rdx,%rsi
  404705:	48 89 c7             	mov    %rax,%rdi
  404708:	e8 e3 f1 ff ff       	callq  4038f0 <_ZNSi3getERc@plt>
  40470d:	0f b6 45 f5          	movzbl -0xb(%rbp),%eax
  404711:	3c 2f                	cmp    $0x2f,%al
  404713:	0f 85 bd 00 00 00    	jne    4047d6 <_ZN6jsonxx13parse_commentERSi+0x189>
  404719:	0f b6 45 f6          	movzbl -0xa(%rbp),%eax
  40471d:	3c 2f                	cmp    $0x2f,%al
  40471f:	0f 85 b1 00 00 00    	jne    4047d6 <_ZN6jsonxx13parse_commentERSi+0x189>
  404725:	c6 45 f7 00          	movb   $0x0,-0x9(%rbp)
  404729:	48 8b 45 e8          	mov    -0x18(%rbp),%rax
  40472d:	48 8b 00             	mov    (%rax),%rax
  404730:	48 83 e8 18          	sub    $0x18,%rax
  404734:	48 8b 00             	mov    (%rax),%rax
  404737:	48 89 c2             	mov    %rax,%rdx
  40473a:	48 8b 45 e8          	mov    -0x18(%rbp),%rax
  40473e:	48 01 d0             	add    %rdx,%rax
  404741:	48 89 c7             	mov    %rax,%rdi
  404744:	e8 97 f3 ff ff       	callq  403ae0 <_ZNKSt9basic_iosIcSt11char_traitsIcEE3eofEv@plt>
  404749:	83 f0 01             	xor    $0x1,%eax
  40474c:	84 c0                	test   %al,%al
  40474e:	74 29                	je     404779 <_ZN6jsonxx13parse_commentERSi+0x12c>
  404750:	48 8b 45 e8          	mov    -0x18(%rbp),%rax
  404754:	48 89 c7             	mov    %rax,%rdi
  404757:	e8 f4 f2 ff ff       	callq  403a50 <_ZNSi4peekEv@plt>
  40475c:	83 f8 0d             	cmp    $0xd,%eax
  40475f:	74 18                	je     404779 <_ZN6jsonxx13parse_commentERSi+0x12c>
  404761:	48 8b 45 e8          	mov    -0x18(%rbp),%rax
  404765:	48 89 c7             	mov    %rax,%rdi
  404768:	e8 e3 f2 ff ff       	callq  403a50 <_ZNSi4peekEv@plt>
  40476d:	83 f8 0a             	cmp    $0xa,%eax
  404770:	74 07                	je     404779 <_ZN6jsonxx13parse_commentERSi+0x12c>
  404772:	b8 01 00 00 00       	mov    $0x1,%eax
  404777:	eb 05                	jmp    40477e <_ZN6jsonxx13parse_commentERSi+0x131>
  404779:	b8 00 00 00 00       	mov    $0x0,%eax
  40477e:	84 c0                	test   %al,%al
  404780:	74 15                	je     404797 <_ZN6jsonxx13parse_commentERSi+0x14a>
  404782:	48 8d 55 f7          	lea    -0x9(%rbp),%rdx
  404786:	48 8b 45 e8          	mov    -0x18(%rbp),%rax
  40478a:	48 89 d6             	mov    %rdx,%rsi
  40478d:	48 89 c7             	mov    %rax,%rdi
  404790:	e8 5b f1 ff ff       	callq  4038f0 <_ZNSi3getERc@plt>
  404795:	eb 92                	jmp    404729 <_ZN6jsonxx13parse_commentERSi+0xdc>
  404797:	48 8b 45 e8          	mov    -0x18(%rbp),%rax
  40479b:	48 8b 00             	mov    (%rax),%rax
  40479e:	48 83 e8 18          	sub    $0x18,%rax
  4047a2:	48 8b 00             	mov    (%rax),%rax
  4047a5:	48 89 c2             	mov    %rax,%rdx
  4047a8:	48 8b 45 e8          	mov    -0x18(%rbp),%rax
  4047ac:	48 01 d0             	add    %rdx,%rax
  4047af:	48 89 c7             	mov    %rax,%rdi
  4047b2:	e8 29 f3 ff ff       	callq  403ae0 <_ZNKSt9basic_iosIcSt11char_traitsIcEE3eofEv@plt>
  4047b7:	83 f0 01             	xor    $0x1,%eax
  4047ba:	84 c0                	test   %al,%al
  4047bc:	74 11                	je     4047cf <_ZN6jsonxx13parse_commentERSi+0x182>
  4047be:	48 8b 45 e8          	mov    -0x18(%rbp),%rax
  4047c2:	be 30 37 40 00       	mov    $0x403730,%esi
  4047c7:	48 89 c7             	mov    %rax,%rdi
  4047ca:	e8 21 f2 ff ff       	callq  4039f0 <_ZNSirsEPFRSiS_E@plt>
  4047cf:	b8 01 00 00 00       	mov    $0x1,%eax
  4047d4:	eb 67                	jmp    40483d <_ZN6jsonxx13parse_commentERSi+0x1f0>
  4047d6:	48 8b 45 e8          	mov    -0x18(%rbp),%rax
  4047da:	48 89 c7             	mov    %rax,%rdi
  4047dd:	e8 ce ef ff ff       	callq  4037b0 <_ZNSi5ungetEv@plt>
  4047e2:	48 8b 45 e8          	mov    -0x18(%rbp),%rax
  4047e6:	48 8b 00             	mov    (%rax),%rax
  4047e9:	48 83 e8 18          	sub    $0x18,%rax
  4047ed:	48 8b 00             	mov    (%rax),%rax
  4047f0:	48 89 c2             	mov    %rax,%rdx
  4047f3:	48 8b 45 e8          	mov    -0x18(%rbp),%rax
  4047f7:	48 01 d0             	add    %rdx,%rax
  4047fa:	be 00 00 00 00       	mov    $0x0,%esi
  4047ff:	48 89 c7             	mov    %rax,%rdi
  404802:	e8 69 f2 ff ff       	callq  403a70 <_ZNSt9basic_iosIcSt11char_traitsIcEE5clearESt12_Ios_Iostate@plt>
  404807:	48 8b 45 e8          	mov    -0x18(%rbp),%rax
  40480b:	48 89 c7             	mov    %rax,%rdi
  40480e:	e8 9d ef ff ff       	callq  4037b0 <_ZNSi5ungetEv@plt>
  404813:	48 8b 45 e8          	mov    -0x18(%rbp),%rax
  404817:	48 8b 00             	mov    (%rax),%rax
  40481a:	48 83 e8 18          	sub    $0x18,%rax
  40481e:	48 8b 00             	mov    (%rax),%rax
  404821:	48 89 c2             	mov    %rax,%rdx
  404824:	48 8b 45 e8          	mov    -0x18(%rbp),%rax
  404828:	48 01 d0             	add    %rdx,%rax
  40482b:	be 00 00 00 00       	mov    $0x0,%esi
  404830:	48 89 c7             	mov    %rax,%rdi
  404833:	e8 38 f2 ff ff       	callq  403a70 <_ZNSt9basic_iosIcSt11char_traitsIcEE5clearESt12_Ios_Iostate@plt>
  404838:	b8 00 00 00 00       	mov    $0x0,%eax
  40483d:	48 8b 4d f8          	mov    -0x8(%rbp),%rcx
  404841:	64 48 33 0c 25 28 00 	xor    %fs:0x28,%rcx
  404848:	00 00 
  40484a:	74 05                	je     404851 <_ZN6jsonxx13parse_commentERSi+0x204>
  40484c:	e8 4f ed ff ff       	callq  4035a0 <__stack_chk_fail@plt>
  404851:	c9                   	leaveq 
  404852:	c3                   	retq   

0000000000404853 <_ZN6jsonxx11parse_valueERSiRNS_5ValueE>:
  404853:	55                   	push   %rbp
  404854:	48 89 e5             	mov    %rsp,%rbp
  404857:	48 83 ec 10          	sub    $0x10,%rsp
  40485b:	48 89 7d f8          	mov    %rdi,-0x8(%rbp)
  40485f:	48 89 75 f0          	mov    %rsi,-0x10(%rbp)
  404863:	48 8b 55 f8          	mov    -0x8(%rbp),%rdx
  404867:	48 8b 45 f0          	mov    -0x10(%rbp),%rax
  40486b:	48 89 d6             	mov    %rdx,%rsi
  40486e:	48 89 c7             	mov    %rax,%rdi
  404871:	e8 0e 67 00 00       	callq  40af84 <_ZN6jsonxx5Value5parseERSi>
  404876:	c9                   	leaveq 
  404877:	c3                   	retq   

0000000000404878 <_ZN6jsonxx6ObjectC1Ev>:
  404878:	55                   	push   %rbp
  404879:	48 89 e5             	mov    %rsp,%rbp
  40487c:	48 83 ec 10          	sub    $0x10,%rsp
  404880:	48 89 7d f8          	mov    %rdi,-0x8(%rbp)
  404884:	48 8b 45 f8          	mov    -0x8(%rbp),%rax
  404888:	48 89 c7             	mov    %rax,%rdi
  40488b:	e8 64 c6 00 00       	callq  410ef4 <_ZNSt3mapINSt7__cxx1112basic_stringIcSt11char_traitsIcESaIcEEEPN6jsonxx5ValueESt4lessIS5_ESaISt4pairIKS5_S8_EEEC1Ev>
  404890:	48 8b 45 f8          	mov    -0x8(%rbp),%rax
  404894:	48 83 c0 30          	add    $0x30,%rax
  404898:	48 89 c7             	mov    %rax,%rdi
  40489b:	e8 50 ed ff ff       	callq  4035f0 <_ZNSt7__cxx1112basic_stringIcSt11char_traitsIcESaIcEEC1Ev@plt>
  4048a0:	90                   	nop
  4048a1:	c9                   	leaveq 
  4048a2:	c3                   	retq   
  4048a3:	90                   	nop

00000000004048a4 <_ZN6jsonxx6ObjectD1Ev>:
  4048a4:	55                   	push   %rbp
  4048a5:	48 89 e5             	mov    %rsp,%rbp
  4048a8:	48 83 ec 10          	sub    $0x10,%rsp
  4048ac:	48 89 7d f8          	mov    %rdi,-0x8(%rbp)
  4048b0:	48 8b 45 f8          	mov    -0x8(%rbp),%rax
  4048b4:	48 89 c7             	mov    %rax,%rdi
  4048b7:	e8 82 5f 00 00       	callq  40a83e <_ZN6jsonxx6Object5resetEv>
  4048bc:	48 8b 45 f8          	mov    -0x8(%rbp),%rax
  4048c0:	48 83 c0 30          	add    $0x30,%rax
  4048c4:	48 89 c7             	mov    %rax,%rdi
  4048c7:	e8 64 ef ff ff       	callq  403830 <_ZNSt7__cxx1112basic_stringIcSt11char_traitsIcESaIcEED1Ev@plt>
  4048cc:	48 8b 45 f8          	mov    -0x8(%rbp),%rax
  4048d0:	48 89 c7             	mov    %rax,%rdi
  4048d3:	e8 ac 99 00 00       	callq  40e284 <_ZNSt3mapINSt7__cxx1112basic_stringIcSt11char_traitsIcESaIcEEEPN6jsonxx5ValueESt4lessIS5_ESaISt4pairIKS5_S8_EEED1Ev>
  4048d8:	90                   	nop
  4048d9:	c9                   	leaveq 
  4048da:	c3                   	retq   
  4048db:	90                   	nop

00000000004048dc <_ZN6jsonxx6Object5parseERSiRS0_>:
  4048dc:	55                   	push   %rbp
  4048dd:	48 89 e5             	mov    %rsp,%rbp
  4048e0:	41 54                	push   %r12
  4048e2:	53                   	push   %rbx
  4048e3:	48 83 ec 50          	sub    $0x50,%rsp
  4048e7:	48 89 7d a8          	mov    %rdi,-0x58(%rbp)
  4048eb:	48 89 75 a0          	mov    %rsi,-0x60(%rbp)
  4048ef:	64 48 8b 04 25 28 00 	mov    %fs:0x28,%rax
  4048f6:	00 00 
  4048f8:	48 89 45 e8          	mov    %rax,-0x18(%rbp)
  4048fc:	31 c0                	xor    %eax,%eax
  4048fe:	48 8b 45 a0          	mov    -0x60(%rbp),%rax
  404902:	48 89 c7             	mov    %rax,%rdi
  404905:	e8 34 5f 00 00       	callq  40a83e <_ZN6jsonxx6Object5resetEv>
  40490a:	48 8b 45 a8          	mov    -0x58(%rbp),%rax
  40490e:	48 89 c6             	mov    %rax,%rsi
  404911:	bf d8 c9 41 00       	mov    $0x41c9d8,%edi
  404916:	e8 81 f3 ff ff       	callq  403c9c <_ZN6jsonxx5matchEPKcRSi>
  40491b:	83 f0 01             	xor    $0x1,%eax
  40491e:	84 c0                	test   %al,%al
  404920:	74 0b                	je     40492d <_ZN6jsonxx6Object5parseERSiRS0_+0x51>
  404922:	41 bc 00 00 00 00    	mov    $0x0,%r12d
  404928:	e9 6b 01 00 00       	jmpq   404a98 <_ZN6jsonxx6Object5parseERSiRS0_+0x1bc>
  40492d:	48 8b 45 a8          	mov    -0x58(%rbp),%rax
  404931:	48 89 c6             	mov    %rax,%rsi
  404934:	bf da c9 41 00       	mov    $0x41c9da,%edi
  404939:	e8 5e f3 ff ff       	callq  403c9c <_ZN6jsonxx5matchEPKcRSi>
  40493e:	84 c0                	test   %al,%al
  404940:	74 0b                	je     40494d <_ZN6jsonxx6Object5parseERSiRS0_+0x71>
  404942:	41 bc 01 00 00 00    	mov    $0x1,%r12d
  404948:	e9 4b 01 00 00       	jmpq   404a98 <_ZN6jsonxx6Object5parseERSiRS0_+0x1bc>
  40494d:	48 8d 45 c0          	lea    -0x40(%rbp),%rax
  404951:	48 89 c7             	mov    %rax,%rdi
  404954:	e8 97 ec ff ff       	callq  4035f0 <_ZNSt7__cxx1112basic_stringIcSt11char_traitsIcESaIcEEC1Ev@plt>
  404959:	48 8d 55 c0          	lea    -0x40(%rbp),%rdx
  40495d:	48 8b 45 a8          	mov    -0x58(%rbp),%rax
  404961:	48 89 d6             	mov    %rdx,%rsi
  404964:	48 89 c7             	mov    %rax,%rdi
  404967:	e8 7f f4 ff ff       	callq  403deb <_ZN6jsonxx12parse_stringERSiRNSt7__cxx1112basic_stringIcSt11char_traitsIcESaIcEEE>
  40496c:	83 f0 01             	xor    $0x1,%eax
  40496f:	84 c0                	test   %al,%al
  404971:	74 30                	je     4049a3 <_ZN6jsonxx6Object5parseERSiRS0_+0xc7>
  404973:	48 8b 45 a8          	mov    -0x58(%rbp),%rax
  404977:	48 89 c7             	mov    %rax,%rdi
  40497a:	e8 d1 f0 ff ff       	callq  403a50 <_ZNSi4peekEv@plt>
  40497f:	83 f8 7d             	cmp    $0x7d,%eax
  404982:	0f 94 c0             	sete   %al
  404985:	84 c0                	test   %al,%al
  404987:	74 0a                	je     404993 <_ZN6jsonxx6Object5parseERSiRS0_+0xb7>
  404989:	bb 00 00 00 00       	mov    $0x0,%ebx
  40498e:	e9 af 00 00 00       	jmpq   404a42 <_ZN6jsonxx6Object5parseERSiRS0_+0x166>
  404993:	41 bc 00 00 00 00    	mov    $0x0,%r12d
  404999:	bb 01 00 00 00       	mov    $0x1,%ebx
  40499e:	e9 9f 00 00 00       	jmpq   404a42 <_ZN6jsonxx6Object5parseERSiRS0_+0x166>
  4049a3:	48 8b 45 a8          	mov    -0x58(%rbp),%rax
  4049a7:	48 89 c6             	mov    %rax,%rsi
  4049aa:	bf dc c9 41 00       	mov    $0x41c9dc,%edi
  4049af:	e8 e8 f2 ff ff       	callq  403c9c <_ZN6jsonxx5matchEPKcRSi>
  4049b4:	83 f0 01             	xor    $0x1,%eax
  4049b7:	84 c0                	test   %al,%al
  4049b9:	74 0d                	je     4049c8 <_ZN6jsonxx6Object5parseERSiRS0_+0xec>
  4049bb:	41 bc 00 00 00 00    	mov    $0x0,%r12d
  4049c1:	bb 01 00 00 00       	mov    $0x1,%ebx
  4049c6:	eb 7a                	jmp    404a42 <_ZN6jsonxx6Object5parseERSiRS0_+0x166>
  4049c8:	bf 20 00 00 00       	mov    $0x20,%edi
  4049cd:	e8 0e eb ff ff       	callq  4034e0 <_Znwm@plt>
  4049d2:	48 89 c3             	mov    %rax,%rbx
  4049d5:	48 89 df             	mov    %rbx,%rdi
  4049d8:	e8 f7 00 00 00       	callq  404ad4 <_ZN6jsonxx5ValueC1Ev>
  4049dd:	48 89 5d b8          	mov    %rbx,-0x48(%rbp)
  4049e1:	48 8b 55 b8          	mov    -0x48(%rbp),%rdx
  4049e5:	48 8b 45 a8          	mov    -0x58(%rbp),%rax
  4049e9:	48 89 d6             	mov    %rdx,%rsi
  4049ec:	48 89 c7             	mov    %rax,%rdi
  4049ef:	e8 5f fe ff ff       	callq  404853 <_ZN6jsonxx11parse_valueERSiRNS_5ValueE>
  4049f4:	83 f0 01             	xor    $0x1,%eax
  4049f7:	84 c0                	test   %al,%al
  4049f9:	74 25                	je     404a20 <_ZN6jsonxx6Object5parseERSiRS0_+0x144>
  4049fb:	48 8b 5d b8          	mov    -0x48(%rbp),%rbx
  4049ff:	48 85 db             	test   %rbx,%rbx
  404a02:	74 15                	je     404a19 <_ZN6jsonxx6Object5parseERSiRS0_+0x13d>
  404a04:	48 89 df             	mov    %rbx,%rdi
  404a07:	e8 6c 94 00 00       	callq  40de78 <_ZN6jsonxx5ValueD1Ev>
  404a0c:	be 20 00 00 00       	mov    $0x20,%esi
  404a11:	48 89 df             	mov    %rbx,%rdi
  404a14:	e8 67 ea ff ff       	callq  403480 <_ZdlPvm@plt>
  404a19:	bb 00 00 00 00       	mov    $0x0,%ebx
  404a1e:	eb 22                	jmp    404a42 <_ZN6jsonxx6Object5parseERSiRS0_+0x166>
  404a20:	48 8b 45 a0          	mov    -0x60(%rbp),%rax
  404a24:	48 8d 55 c0          	lea    -0x40(%rbp),%rdx
  404a28:	48 89 d6             	mov    %rdx,%rsi
  404a2b:	48 89 c7             	mov    %rax,%rdi
  404a2e:	e8 c3 c5 00 00       	callq  410ff6 <_ZNSt3mapINSt7__cxx1112basic_stringIcSt11char_traitsIcESaIcEEEPN6jsonxx5ValueESt4lessIS5_ESaISt4pairIKS5_S8_EEEixERSC_>
  404a33:	48 89 c2             	mov    %rax,%rdx
  404a36:	48 8b 45 b8          	mov    -0x48(%rbp),%rax
  404a3a:	48 89 02             	mov    %rax,(%rdx)
  404a3d:	bb 02 00 00 00       	mov    $0x2,%ebx
  404a42:	48 8d 45 c0          	lea    -0x40(%rbp),%rax
  404a46:	48 89 c7             	mov    %rax,%rdi
  404a49:	e8 e2 ed ff ff       	callq  403830 <_ZNSt7__cxx1112basic_stringIcSt11char_traitsIcESaIcEED1Ev@plt>
  404a4e:	85 db                	test   %ebx,%ebx
  404a50:	74 20                	je     404a72 <_ZN6jsonxx6Object5parseERSiRS0_+0x196>
  404a52:	83 fb 02             	cmp    $0x2,%ebx
  404a55:	75 41                	jne    404a98 <_ZN6jsonxx6Object5parseERSiRS0_+0x1bc>
  404a57:	90                   	nop
  404a58:	48 8b 45 a8          	mov    -0x58(%rbp),%rax
  404a5c:	48 89 c6             	mov    %rax,%rsi
  404a5f:	bf de c9 41 00       	mov    $0x41c9de,%edi
  404a64:	e8 33 f2 ff ff       	callq  403c9c <_ZN6jsonxx5matchEPKcRSi>
  404a69:	84 c0                	test   %al,%al
  404a6b:	74 05                	je     404a72 <_ZN6jsonxx6Object5parseERSiRS0_+0x196>
  404a6d:	e9 db fe ff ff       	jmpq   40494d <_ZN6jsonxx6Object5parseERSiRS0_+0x71>
  404a72:	48 8b 45 a8          	mov    -0x58(%rbp),%rax
  404a76:	48 89 c6             	mov    %rax,%rsi
  404a79:	bf da c9 41 00       	mov    $0x41c9da,%edi
  404a7e:	e8 19 f2 ff ff       	callq  403c9c <_ZN6jsonxx5matchEPKcRSi>
  404a83:	83 f0 01             	xor    $0x1,%eax
  404a86:	84 c0                	test   %al,%al
  404a88:	74 08                	je     404a92 <_ZN6jsonxx6Object5parseERSiRS0_+0x1b6>
  404a8a:	41 bc 00 00 00 00    	mov    $0x0,%r12d
  404a90:	eb 06                	jmp    404a98 <_ZN6jsonxx6Object5parseERSiRS0_+0x1bc>
  404a92:	41 bc 01 00 00 00    	mov    $0x1,%r12d
  404a98:	44 89 e0             	mov    %r12d,%eax
  404a9b:	48 8b 4d e8          	mov    -0x18(%rbp),%rcx
  404a9f:	64 48 33 0c 25 28 00 	xor    %fs:0x28,%rcx
  404aa6:	00 00 
  404aa8:	74 21                	je     404acb <_ZN6jsonxx6Object5parseERSiRS0_+0x1ef>
  404aaa:	eb 1a                	jmp    404ac6 <_ZN6jsonxx6Object5parseERSiRS0_+0x1ea>
  404aac:	48 89 c3             	mov    %rax,%rbx
  404aaf:	48 8d 45 c0          	lea    -0x40(%rbp),%rax
  404ab3:	48 89 c7             	mov    %rax,%rdi
  404ab6:	e8 75 ed ff ff       	callq  403830 <_ZNSt7__cxx1112basic_stringIcSt11char_traitsIcESaIcEED1Ev@plt>
  404abb:	48 89 d8             	mov    %rbx,%rax
  404abe:	48 89 c7             	mov    %rax,%rdi
  404ac1:	e8 fa ec ff ff       	callq  4037c0 <_Unwind_Resume@plt>
  404ac6:	e8 d5 ea ff ff       	callq  4035a0 <__stack_chk_fail@plt>
  404acb:	48 83 c4 50          	add    $0x50,%rsp
  404acf:	5b                   	pop    %rbx
  404ad0:	41 5c                	pop    %r12
  404ad2:	5d                   	pop    %rbp
  404ad3:	c3                   	retq   

0000000000404ad4 <_ZN6jsonxx5ValueC1Ev>:
  404ad4:	55                   	push   %rbp
  404ad5:	48 89 e5             	mov    %rsp,%rbp
  404ad8:	48 89 7d f8          	mov    %rdi,-0x8(%rbp)
  404adc:	48 8b 45 f8          	mov    -0x8(%rbp),%rax
  404ae0:	c7 00 06 00 00 00    	movl   $0x6,(%rax)
  404ae6:	90                   	nop
  404ae7:	5d                   	pop    %rbp
  404ae8:	c3                   	retq   
  404ae9:	90                   	nop

0000000000404aea <_ZN6jsonxx5Value5resetEv>:
  404aea:	55                   	push   %rbp
  404aeb:	48 89 e5             	mov    %rsp,%rbp
  404aee:	53                   	push   %rbx
  404aef:	48 83 ec 18          	sub    $0x18,%rsp
  404af3:	48 89 7d e8          	mov    %rdi,-0x18(%rbp)
  404af7:	48 8b 45 e8          	mov    -0x18(%rbp),%rax
  404afb:	8b 00                	mov    (%rax),%eax
  404afd:	83 f8 01             	cmp    $0x1,%eax
  404b00:	75 30                	jne    404b32 <_ZN6jsonxx5Value5resetEv+0x48>
  404b02:	48 8b 45 e8          	mov    -0x18(%rbp),%rax
  404b06:	48 8b 58 10          	mov    0x10(%rax),%rbx
  404b0a:	48 85 db             	test   %rbx,%rbx
  404b0d:	74 15                	je     404b24 <_ZN6jsonxx5Value5resetEv+0x3a>
  404b0f:	48 89 df             	mov    %rbx,%rdi
  404b12:	e8 19 ed ff ff       	callq  403830 <_ZNSt7__cxx1112basic_stringIcSt11char_traitsIcESaIcEED1Ev@plt>
  404b17:	be 20 00 00 00       	mov    $0x20,%esi
  404b1c:	48 89 df             	mov    %rbx,%rdi
  404b1f:	e8 5c e9 ff ff       	callq  403480 <_ZdlPvm@plt>
  404b24:	48 8b 45 e8          	mov    -0x18(%rbp),%rax
  404b28:	48 c7 40 10 00 00 00 	movq   $0x0,0x10(%rax)
  404b2f:	00 
  404b30:	eb 74                	jmp    404ba6 <_ZN6jsonxx5Value5resetEv+0xbc>
  404b32:	48 8b 45 e8          	mov    -0x18(%rbp),%rax
  404b36:	8b 00                	mov    (%rax),%eax
  404b38:	83 f8 05             	cmp    $0x5,%eax
  404b3b:	75 30                	jne    404b6d <_ZN6jsonxx5Value5resetEv+0x83>
  404b3d:	48 8b 45 e8          	mov    -0x18(%rbp),%rax
  404b41:	48 8b 58 10          	mov    0x10(%rax),%rbx
  404b45:	48 85 db             	test   %rbx,%rbx
  404b48:	74 15                	je     404b5f <_ZN6jsonxx5Value5resetEv+0x75>
  404b4a:	48 89 df             	mov    %rbx,%rdi
  404b4d:	e8 52 fd ff ff       	callq  4048a4 <_ZN6jsonxx6ObjectD1Ev>
  404b52:	be 50 00 00 00       	mov    $0x50,%esi
  404b57:	48 89 df             	mov    %rbx,%rdi
  404b5a:	e8 21 e9 ff ff       	callq  403480 <_ZdlPvm@plt>
  404b5f:	48 8b 45 e8          	mov    -0x18(%rbp),%rax
  404b63:	48 c7 40 10 00 00 00 	movq   $0x0,0x10(%rax)
  404b6a:	00 
  404b6b:	eb 39                	jmp    404ba6 <_ZN6jsonxx5Value5resetEv+0xbc>
  404b6d:	48 8b 45 e8          	mov    -0x18(%rbp),%rax
  404b71:	8b 00                	mov    (%rax),%eax
  404b73:	83 f8 04             	cmp    $0x4,%eax
  404b76:	75 2e                	jne    404ba6 <_ZN6jsonxx5Value5resetEv+0xbc>
  404b78:	48 8b 45 e8          	mov    -0x18(%rbp),%rax
  404b7c:	48 8b 58 10          	mov    0x10(%rax),%rbx
  404b80:	48 85 db             	test   %rbx,%rbx
  404b83:	74 15                	je     404b9a <_ZN6jsonxx5Value5resetEv+0xb0>
  404b85:	48 89 df             	mov    %rbx,%rdi
  404b88:	e8 8f 02 00 00       	callq  404e1c <_ZN6jsonxx5ArrayD1Ev>
  404b8d:	be 18 00 00 00       	mov    $0x18,%esi
  404b92:	48 89 df             	mov    %rbx,%rdi
  404b95:	e8 e6 e8 ff ff       	callq  403480 <_ZdlPvm@plt>
  404b9a:	48 8b 45 e8          	mov    -0x18(%rbp),%rax
  404b9e:	48 c7 40 10 00 00 00 	movq   $0x0,0x10(%rax)
  404ba5:	00 
  404ba6:	90                   	nop
  404ba7:	48 83 c4 18          	add    $0x18,%rsp
  404bab:	5b                   	pop    %rbx
  404bac:	5d                   	pop    %rbp
  404bad:	c3                   	retq   

0000000000404bae <_ZN6jsonxx5Value5parseERSiRS0_>:
  404bae:	55                   	push   %rbp
  404baf:	48 89 e5             	mov    %rsp,%rbp
  404bb2:	53                   	push   %rbx
  404bb3:	48 83 ec 48          	sub    $0x48,%rsp
  404bb7:	48 89 7d b8          	mov    %rdi,-0x48(%rbp)
  404bbb:	48 89 75 b0          	mov    %rsi,-0x50(%rbp)
  404bbf:	64 48 8b 04 25 28 00 	mov    %fs:0x28,%rax
  404bc6:	00 00 
  404bc8:	48 89 45 e8          	mov    %rax,-0x18(%rbp)
  404bcc:	31 c0                	xor    %eax,%eax
  404bce:	48 8b 45 b0          	mov    -0x50(%rbp),%rax
  404bd2:	48 89 c7             	mov    %rax,%rdi
  404bd5:	e8 10 ff ff ff       	callq  404aea <_ZN6jsonxx5Value5resetEv>
  404bda:	48 8d 45 c0          	lea    -0x40(%rbp),%rax
  404bde:	48 89 c7             	mov    %rax,%rdi
  404be1:	e8 0a ea ff ff       	callq  4035f0 <_ZNSt7__cxx1112basic_stringIcSt11char_traitsIcESaIcEEC1Ev@plt>
  404be6:	48 8d 55 c0          	lea    -0x40(%rbp),%rdx
  404bea:	48 8b 45 b8          	mov    -0x48(%rbp),%rax
  404bee:	48 89 d6             	mov    %rdx,%rsi
  404bf1:	48 89 c7             	mov    %rax,%rdi
  404bf4:	e8 f2 f1 ff ff       	callq  403deb <_ZN6jsonxx12parse_stringERSiRNSt7__cxx1112basic_stringIcSt11char_traitsIcESaIcEEE>
  404bf9:	84 c0                	test   %al,%al
  404bfb:	74 48                	je     404c45 <_ZN6jsonxx5Value5parseERSiRS0_+0x97>
  404bfd:	bf 20 00 00 00       	mov    $0x20,%edi
  404c02:	e8 d9 e8 ff ff       	callq  4034e0 <_Znwm@plt>
  404c07:	48 89 c3             	mov    %rax,%rbx
  404c0a:	48 89 df             	mov    %rbx,%rdi
  404c0d:	e8 de e9 ff ff       	callq  4035f0 <_ZNSt7__cxx1112basic_stringIcSt11char_traitsIcESaIcEEC1Ev@plt>
  404c12:	48 8b 45 b0          	mov    -0x50(%rbp),%rax
  404c16:	48 89 58 10          	mov    %rbx,0x10(%rax)
  404c1a:	48 8b 45 b0          	mov    -0x50(%rbp),%rax
  404c1e:	48 8b 40 10          	mov    0x10(%rax),%rax
  404c22:	48 8d 55 c0          	lea    -0x40(%rbp),%rdx
  404c26:	48 89 d6             	mov    %rdx,%rsi
  404c29:	48 89 c7             	mov    %rax,%rdi
  404c2c:	e8 9f ee ff ff       	callq  403ad0 <_ZNSt7__cxx1112basic_stringIcSt11char_traitsIcESaIcEE4swapERS4_@plt>
  404c31:	48 8b 45 b0          	mov    -0x50(%rbp),%rax
  404c35:	c7 00 01 00 00 00    	movl   $0x1,(%rax)
  404c3b:	bb 01 00 00 00       	mov    $0x1,%ebx
  404c40:	e9 76 01 00 00       	jmpq   404dbb <_ZN6jsonxx5Value5parseERSiRS0_+0x20d>
  404c45:	48 8b 45 b0          	mov    -0x50(%rbp),%rax
  404c49:	48 8d 50 10          	lea    0x10(%rax),%rdx
  404c4d:	48 8b 45 b8          	mov    -0x48(%rbp),%rax
  404c51:	48 89 d6             	mov    %rdx,%rsi
  404c54:	48 89 c7             	mov    %rax,%rdi
  404c57:	e8 35 f8 ff ff       	callq  404491 <_ZN6jsonxx12parse_numberERSiRe>
  404c5c:	84 c0                	test   %al,%al
  404c5e:	74 14                	je     404c74 <_ZN6jsonxx5Value5parseERSiRS0_+0xc6>
  404c60:	48 8b 45 b0          	mov    -0x50(%rbp),%rax
  404c64:	c7 00 00 00 00 00    	movl   $0x0,(%rax)
  404c6a:	bb 01 00 00 00       	mov    $0x1,%ebx
  404c6f:	e9 47 01 00 00       	jmpq   404dbb <_ZN6jsonxx5Value5parseERSiRS0_+0x20d>
  404c74:	48 8b 45 b0          	mov    -0x50(%rbp),%rax
  404c78:	48 8d 50 10          	lea    0x10(%rax),%rdx
  404c7c:	48 8b 45 b8          	mov    -0x48(%rbp),%rax
  404c80:	48 89 d6             	mov    %rdx,%rsi
  404c83:	48 89 c7             	mov    %rax,%rdi
  404c86:	e8 df f8 ff ff       	callq  40456a <_ZN6jsonxx10parse_boolERSiRb>
  404c8b:	84 c0                	test   %al,%al
  404c8d:	74 14                	je     404ca3 <_ZN6jsonxx5Value5parseERSiRS0_+0xf5>
  404c8f:	48 8b 45 b0          	mov    -0x50(%rbp),%rax
  404c93:	c7 00 02 00 00 00    	movl   $0x2,(%rax)
  404c99:	bb 01 00 00 00       	mov    $0x1,%ebx
  404c9e:	e9 18 01 00 00       	jmpq   404dbb <_ZN6jsonxx5Value5parseERSiRS0_+0x20d>
  404ca3:	48 8b 45 b8          	mov    -0x48(%rbp),%rax
  404ca7:	48 89 c7             	mov    %rax,%rdi
  404caa:	e8 18 f9 ff ff       	callq  4045c7 <_ZN6jsonxx10parse_nullERSi>
  404caf:	84 c0                	test   %al,%al
  404cb1:	74 14                	je     404cc7 <_ZN6jsonxx5Value5parseERSiRS0_+0x119>
  404cb3:	48 8b 45 b0          	mov    -0x50(%rbp),%rax
  404cb7:	c7 00 03 00 00 00    	movl   $0x3,(%rax)
  404cbd:	bb 01 00 00 00       	mov    $0x1,%ebx
  404cc2:	e9 f4 00 00 00       	jmpq   404dbb <_ZN6jsonxx5Value5parseERSiRS0_+0x20d>
  404cc7:	48 8b 45 b8          	mov    -0x48(%rbp),%rax
  404ccb:	48 89 c7             	mov    %rax,%rdi
  404cce:	e8 7d ed ff ff       	callq  403a50 <_ZNSi4peekEv@plt>
  404cd3:	83 f8 5b             	cmp    $0x5b,%eax
  404cd6:	0f 94 c0             	sete   %al
  404cd9:	84 c0                	test   %al,%al
  404cdb:	74 6e                	je     404d4b <_ZN6jsonxx5Value5parseERSiRS0_+0x19d>
  404cdd:	bf 18 00 00 00       	mov    $0x18,%edi
  404ce2:	e8 f9 e7 ff ff       	callq  4034e0 <_Znwm@plt>
  404ce7:	48 89 c3             	mov    %rax,%rbx
  404cea:	48 89 df             	mov    %rbx,%rdi
  404ced:	e8 0e 01 00 00       	callq  404e00 <_ZN6jsonxx5ArrayC1Ev>
  404cf2:	48 8b 45 b0          	mov    -0x50(%rbp),%rax
  404cf6:	48 89 58 10          	mov    %rbx,0x10(%rax)
  404cfa:	48 8b 45 b0          	mov    -0x50(%rbp),%rax
  404cfe:	48 8b 50 10          	mov    0x10(%rax),%rdx
  404d02:	48 8b 45 b8          	mov    -0x48(%rbp),%rax
  404d06:	48 89 d6             	mov    %rdx,%rsi
  404d09:	48 89 c7             	mov    %rax,%rdi
  404d0c:	e8 f2 f8 ff ff       	callq  404603 <_ZN6jsonxx11parse_arrayERSiRNS_5ArrayE>
  404d11:	84 c0                	test   %al,%al
  404d13:	74 14                	je     404d29 <_ZN6jsonxx5Value5parseERSiRS0_+0x17b>
  404d15:	48 8b 45 b0          	mov    -0x50(%rbp),%rax
  404d19:	c7 00 04 00 00 00    	movl   $0x4,(%rax)
  404d1f:	bb 01 00 00 00       	mov    $0x1,%ebx
  404d24:	e9 92 00 00 00       	jmpq   404dbb <_ZN6jsonxx5Value5parseERSiRS0_+0x20d>
  404d29:	48 8b 45 b0          	mov    -0x50(%rbp),%rax
  404d2d:	48 8b 58 10          	mov    0x10(%rax),%rbx
  404d31:	48 85 db             	test   %rbx,%rbx
  404d34:	74 15                	je     404d4b <_ZN6jsonxx5Value5parseERSiRS0_+0x19d>
  404d36:	48 89 df             	mov    %rbx,%rdi
  404d39:	e8 de 00 00 00       	callq  404e1c <_ZN6jsonxx5ArrayD1Ev>
  404d3e:	be 18 00 00 00       	mov    $0x18,%esi
  404d43:	48 89 df             	mov    %rbx,%rdi
  404d46:	e8 35 e7 ff ff       	callq  403480 <_ZdlPvm@plt>
  404d4b:	bf 50 00 00 00       	mov    $0x50,%edi
  404d50:	e8 8b e7 ff ff       	callq  4034e0 <_Znwm@plt>
  404d55:	48 89 c3             	mov    %rax,%rbx
  404d58:	48 89 df             	mov    %rbx,%rdi
  404d5b:	e8 18 fb ff ff       	callq  404878 <_ZN6jsonxx6ObjectC1Ev>
  404d60:	48 8b 45 b0          	mov    -0x50(%rbp),%rax
  404d64:	48 89 58 10          	mov    %rbx,0x10(%rax)
  404d68:	48 8b 45 b0          	mov    -0x50(%rbp),%rax
  404d6c:	48 8b 50 10          	mov    0x10(%rax),%rdx
  404d70:	48 8b 45 b8          	mov    -0x48(%rbp),%rax
  404d74:	48 89 d6             	mov    %rdx,%rsi
  404d77:	48 89 c7             	mov    %rax,%rdi
  404d7a:	e8 a9 f8 ff ff       	callq  404628 <_ZN6jsonxx12parse_objectERSiRNS_6ObjectE>
  404d7f:	84 c0                	test   %al,%al
  404d81:	74 11                	je     404d94 <_ZN6jsonxx5Value5parseERSiRS0_+0x1e6>
  404d83:	48 8b 45 b0          	mov    -0x50(%rbp),%rax
  404d87:	c7 00 05 00 00 00    	movl   $0x5,(%rax)
  404d8d:	bb 01 00 00 00       	mov    $0x1,%ebx
  404d92:	eb 27                	jmp    404dbb <_ZN6jsonxx5Value5parseERSiRS0_+0x20d>
  404d94:	48 8b 45 b0          	mov    -0x50(%rbp),%rax
  404d98:	48 8b 58 10          	mov    0x10(%rax),%rbx
  404d9c:	48 85 db             	test   %rbx,%rbx
  404d9f:	74 15                	je     404db6 <_ZN6jsonxx5Value5parseERSiRS0_+0x208>
  404da1:	48 89 df             	mov    %rbx,%rdi
  404da4:	e8 fb fa ff ff       	callq  4048a4 <_ZN6jsonxx6ObjectD1Ev>
  404da9:	be 50 00 00 00       	mov    $0x50,%esi
  404dae:	48 89 df             	mov    %rbx,%rdi
  404db1:	e8 ca e6 ff ff       	callq  403480 <_ZdlPvm@plt>
  404db6:	bb 00 00 00 00       	mov    $0x0,%ebx
  404dbb:	48 8d 45 c0          	lea    -0x40(%rbp),%rax
  404dbf:	48 89 c7             	mov    %rax,%rdi
  404dc2:	e8 69 ea ff ff       	callq  403830 <_ZNSt7__cxx1112basic_stringIcSt11char_traitsIcESaIcEED1Ev@plt>
  404dc7:	89 d8                	mov    %ebx,%eax
  404dc9:	48 8b 4d e8          	mov    -0x18(%rbp),%rcx
  404dcd:	64 48 33 0c 25 28 00 	xor    %fs:0x28,%rcx
  404dd4:	00 00 
  404dd6:	74 21                	je     404df9 <_ZN6jsonxx5Value5parseERSiRS0_+0x24b>
  404dd8:	eb 1a                	jmp    404df4 <_ZN6jsonxx5Value5parseERSiRS0_+0x246>
  404dda:	48 89 c3             	mov    %rax,%rbx
  404ddd:	48 8d 45 c0          	lea    -0x40(%rbp),%rax
  404de1:	48 89 c7             	mov    %rax,%rdi
  404de4:	e8 47 ea ff ff       	callq  403830 <_ZNSt7__cxx1112basic_stringIcSt11char_traitsIcESaIcEED1Ev@plt>
  404de9:	48 89 d8             	mov    %rbx,%rax
  404dec:	48 89 c7             	mov    %rax,%rdi
  404def:	e8 cc e9 ff ff       	callq  4037c0 <_Unwind_Resume@plt>
  404df4:	e8 a7 e7 ff ff       	callq  4035a0 <__stack_chk_fail@plt>
  404df9:	48 83 c4 48          	add    $0x48,%rsp
  404dfd:	5b                   	pop    %rbx
  404dfe:	5d                   	pop    %rbp
  404dff:	c3                   	retq   

0000000000404e00 <_ZN6jsonxx5ArrayC1Ev>:
  404e00:	55                   	push   %rbp
  404e01:	48 89 e5             	mov    %rsp,%rbp
  404e04:	48 83 ec 10          	sub    $0x10,%rsp
  404e08:	48 89 7d f8          	mov    %rdi,-0x8(%rbp)
  404e0c:	48 8b 45 f8          	mov    -0x8(%rbp),%rax
  404e10:	48 89 c7             	mov    %rax,%rdi
  404e13:	e8 26 c3 00 00       	callq  41113e <_ZNSt6vectorIPN6jsonxx5ValueESaIS2_EEC1Ev>
  404e18:	90                   	nop
  404e19:	c9                   	leaveq 
  404e1a:	c3                   	retq   
  404e1b:	90                   	nop

0000000000404e1c <_ZN6jsonxx5ArrayD1Ev>:
  404e1c:	55                   	push   %rbp
  404e1d:	48 89 e5             	mov    %rsp,%rbp
  404e20:	48 83 ec 10          	sub    $0x10,%rsp
  404e24:	48 89 7d f8          	mov    %rdi,-0x8(%rbp)
  404e28:	48 8b 45 f8          	mov    -0x8(%rbp),%rax
  404e2c:	48 89 c7             	mov    %rax,%rdi
  404e2f:	e8 50 5e 00 00       	callq  40ac84 <_ZN6jsonxx5Array5resetEv>
  404e34:	48 8b 45 f8          	mov    -0x8(%rbp),%rax
  404e38:	48 89 c7             	mov    %rax,%rdi
  404e3b:	e8 1a c3 00 00       	callq  41115a <_ZNSt6vectorIPN6jsonxx5ValueESaIS2_EED1Ev>
  404e40:	90                   	nop
  404e41:	c9                   	leaveq 
  404e42:	c3                   	retq   
  404e43:	90                   	nop

0000000000404e44 <_ZN6jsonxx5Array5parseERSiRS0_>:
  404e44:	55                   	push   %rbp
  404e45:	48 89 e5             	mov    %rsp,%rbp
  404e48:	53                   	push   %rbx
  404e49:	48 83 ec 28          	sub    $0x28,%rsp
  404e4d:	48 89 7d d8          	mov    %rdi,-0x28(%rbp)
  404e51:	48 89 75 d0          	mov    %rsi,-0x30(%rbp)
  404e55:	64 48 8b 04 25 28 00 	mov    %fs:0x28,%rax
  404e5c:	00 00 
  404e5e:	48 89 45 e8          	mov    %rax,-0x18(%rbp)
  404e62:	31 c0                	xor    %eax,%eax
  404e64:	48 8b 45 d0          	mov    -0x30(%rbp),%rax
  404e68:	48 89 c7             	mov    %rax,%rdi
  404e6b:	e8 14 5e 00 00       	callq  40ac84 <_ZN6jsonxx5Array5resetEv>
  404e70:	48 8b 45 d8          	mov    -0x28(%rbp),%rax
  404e74:	48 89 c6             	mov    %rax,%rsi
  404e77:	bf e0 c9 41 00       	mov    $0x41c9e0,%edi
  404e7c:	e8 1b ee ff ff       	callq  403c9c <_ZN6jsonxx5matchEPKcRSi>
  404e81:	83 f0 01             	xor    $0x1,%eax
  404e84:	84 c0                	test   %al,%al
  404e86:	74 0a                	je     404e92 <_ZN6jsonxx5Array5parseERSiRS0_+0x4e>
  404e88:	b8 00 00 00 00       	mov    $0x0,%eax
  404e8d:	e9 c1 00 00 00       	jmpq   404f53 <_ZN6jsonxx5Array5parseERSiRS0_+0x10f>
  404e92:	48 8b 45 d8          	mov    -0x28(%rbp),%rax
  404e96:	48 89 c6             	mov    %rax,%rsi
  404e99:	bf e2 c9 41 00       	mov    $0x41c9e2,%edi
  404e9e:	e8 f9 ed ff ff       	callq  403c9c <_ZN6jsonxx5matchEPKcRSi>
  404ea3:	84 c0                	test   %al,%al
  404ea5:	74 0a                	je     404eb1 <_ZN6jsonxx5Array5parseERSiRS0_+0x6d>
  404ea7:	b8 01 00 00 00       	mov    $0x1,%eax
  404eac:	e9 a2 00 00 00       	jmpq   404f53 <_ZN6jsonxx5Array5parseERSiRS0_+0x10f>
  404eb1:	bf 20 00 00 00       	mov    $0x20,%edi
  404eb6:	e8 25 e6 ff ff       	callq  4034e0 <_Znwm@plt>
  404ebb:	48 89 c3             	mov    %rax,%rbx
  404ebe:	48 89 df             	mov    %rbx,%rdi
  404ec1:	e8 0e fc ff ff       	callq  404ad4 <_ZN6jsonxx5ValueC1Ev>
  404ec6:	48 89 5d e0          	mov    %rbx,-0x20(%rbp)
  404eca:	48 8b 55 e0          	mov    -0x20(%rbp),%rdx
  404ece:	48 8b 45 d8          	mov    -0x28(%rbp),%rax
  404ed2:	48 89 d6             	mov    %rdx,%rsi
  404ed5:	48 89 c7             	mov    %rax,%rdi
  404ed8:	e8 76 f9 ff ff       	callq  404853 <_ZN6jsonxx11parse_valueERSiRNS_5ValueE>
  404edd:	83 f0 01             	xor    $0x1,%eax
  404ee0:	84 c0                	test   %al,%al
  404ee2:	74 20                	je     404f04 <_ZN6jsonxx5Array5parseERSiRS0_+0xc0>
  404ee4:	48 8b 5d e0          	mov    -0x20(%rbp),%rbx
  404ee8:	48 85 db             	test   %rbx,%rbx
  404eeb:	74 41                	je     404f2e <_ZN6jsonxx5Array5parseERSiRS0_+0xea>
  404eed:	48 89 df             	mov    %rbx,%rdi
  404ef0:	e8 83 8f 00 00       	callq  40de78 <_ZN6jsonxx5ValueD1Ev>
  404ef5:	be 20 00 00 00       	mov    $0x20,%esi
  404efa:	48 89 df             	mov    %rbx,%rdi
  404efd:	e8 7e e5 ff ff       	callq  403480 <_ZdlPvm@plt>
  404f02:	eb 2b                	jmp    404f2f <_ZN6jsonxx5Array5parseERSiRS0_+0xeb>
  404f04:	48 8b 45 d0          	mov    -0x30(%rbp),%rax
  404f08:	48 8d 55 e0          	lea    -0x20(%rbp),%rdx
  404f0c:	48 89 d6             	mov    %rdx,%rsi
  404f0f:	48 89 c7             	mov    %rax,%rdi
  404f12:	e8 87 c2 00 00       	callq  41119e <_ZNSt6vectorIPN6jsonxx5ValueESaIS2_EE9push_backERKS2_>
  404f17:	48 8b 45 d8          	mov    -0x28(%rbp),%rax
  404f1b:	48 89 c6             	mov    %rax,%rsi
  404f1e:	bf de c9 41 00       	mov    $0x41c9de,%edi
  404f23:	e8 74 ed ff ff       	callq  403c9c <_ZN6jsonxx5matchEPKcRSi>
  404f28:	84 c0                	test   %al,%al
  404f2a:	74 03                	je     404f2f <_ZN6jsonxx5Array5parseERSiRS0_+0xeb>
  404f2c:	eb 83                	jmp    404eb1 <_ZN6jsonxx5Array5parseERSiRS0_+0x6d>
  404f2e:	90                   	nop
  404f2f:	48 8b 45 d8          	mov    -0x28(%rbp),%rax
  404f33:	48 89 c6             	mov    %rax,%rsi
  404f36:	bf e2 c9 41 00       	mov    $0x41c9e2,%edi
  404f3b:	e8 5c ed ff ff       	callq  403c9c <_ZN6jsonxx5matchEPKcRSi>
  404f40:	83 f0 01             	xor    $0x1,%eax
  404f43:	84 c0                	test   %al,%al
  404f45:	74 07                	je     404f4e <_ZN6jsonxx5Array5parseERSiRS0_+0x10a>
  404f47:	b8 00 00 00 00       	mov    $0x0,%eax
  404f4c:	eb 05                	jmp    404f53 <_ZN6jsonxx5Array5parseERSiRS0_+0x10f>
  404f4e:	b8 01 00 00 00       	mov    $0x1,%eax
  404f53:	48 8b 4d e8          	mov    -0x18(%rbp),%rcx
  404f57:	64 48 33 0c 25 28 00 	xor    %fs:0x28,%rcx
  404f5e:	00 00 
  404f60:	74 05                	je     404f67 <_ZN6jsonxx5Array5parseERSiRS0_+0x123>
  404f62:	e8 39 e6 ff ff       	callq  4035a0 <__stack_chk_fail@plt>
  404f67:	48 83 c4 28          	add    $0x28,%rsp
  404f6b:	5b                   	pop    %rbx
  404f6c:	5d                   	pop    %rbp
  404f6d:	c3                   	retq   

0000000000404f6e <_ZN6jsonxxL13stream_stringERSoRKNSt7__cxx1112basic_stringIcSt11char_traitsIcESaIcEEE>:
  404f6e:	55                   	push   %rbp
  404f6f:	48 89 e5             	mov    %rsp,%rbp
  404f72:	41 56                	push   %r14
  404f74:	41 55                	push   %r13
  404f76:	41 54                	push   %r12
  404f78:	53                   	push   %rbx
  404f79:	48 83 ec 30          	sub    $0x30,%rsp
  404f7d:	48 89 7d b8          	mov    %rdi,-0x48(%rbp)
  404f81:	48 89 75 b0          	mov    %rsi,-0x50(%rbp)
  404f85:	64 48 8b 04 25 28 00 	mov    %fs:0x28,%rax
  404f8c:	00 00 
  404f8e:	48 89 45 d8          	mov    %rax,-0x28(%rbp)
  404f92:	31 c0                	xor    %eax,%eax
  404f94:	48 8b 45 b8          	mov    -0x48(%rbp),%rax
  404f98:	be 22 00 00 00       	mov    $0x22,%esi
  404f9d:	48 89 c7             	mov    %rax,%rdi
  404fa0:	e8 3b e8 ff ff       	callq  4037e0 <_ZStlsISt11char_traitsIcEERSt13basic_ostreamIcT_ES5_c@plt>
  404fa5:	48 8b 45 b0          	mov    -0x50(%rbp),%rax
  404fa9:	48 89 c7             	mov    %rax,%rdi
  404fac:	e8 9f e5 ff ff       	callq  403550 <_ZNKSt7__cxx1112basic_stringIcSt11char_traitsIcESaIcEE5beginEv@plt>
  404fb1:	48 89 45 c0          	mov    %rax,-0x40(%rbp)
  404fb5:	48 8b 45 b0          	mov    -0x50(%rbp),%rax
  404fb9:	48 89 c7             	mov    %rax,%rdi
  404fbc:	e8 6f ea ff ff       	callq  403a30 <_ZNKSt7__cxx1112basic_stringIcSt11char_traitsIcESaIcEE3endEv@plt>
  404fc1:	48 89 45 d0          	mov    %rax,-0x30(%rbp)
  404fc5:	48 8d 55 d0          	lea    -0x30(%rbp),%rdx
  404fc9:	48 8d 45 c0          	lea    -0x40(%rbp),%rax
  404fcd:	48 89 d6             	mov    %rdx,%rsi
  404fd0:	48 89 c7             	mov    %rax,%rdi
  404fd3:	e8 32 c2 00 00       	callq  41120a <_ZN9__gnu_cxxneIPKcNSt7__cxx1112basic_stringIcSt11char_traitsIcESaIcEEEEEbRKNS_17__normal_iteratorIT_T0_EESE_>
  404fd8:	84 c0                	test   %al,%al
  404fda:	0f 84 f1 01 00 00    	je     4051d1 <_ZN6jsonxxL13stream_stringERSoRKNSt7__cxx1112basic_stringIcSt11char_traitsIcESaIcEEE+0x263>
  404fe0:	48 8d 45 c0          	lea    -0x40(%rbp),%rax
  404fe4:	48 89 c7             	mov    %rax,%rdi
  404fe7:	e8 7a c2 00 00       	callq  411266 <_ZNK9__gnu_cxx17__normal_iteratorIPKcNSt7__cxx1112basic_stringIcSt11char_traitsIcESaIcEEEEdeEv>
  404fec:	0f b6 00             	movzbl (%rax),%eax
  404fef:	0f be c0             	movsbl %al,%eax
  404ff2:	83 f8 0c             	cmp    $0xc,%eax
  404ff5:	0f 84 a0 00 00 00    	je     40509b <_ZN6jsonxxL13stream_stringERSoRKNSt7__cxx1112basic_stringIcSt11char_traitsIcESaIcEEE+0x12d>
  404ffb:	83 f8 0c             	cmp    $0xc,%eax
  404ffe:	7f 1c                	jg     40501c <_ZN6jsonxxL13stream_stringERSoRKNSt7__cxx1112basic_stringIcSt11char_traitsIcESaIcEEE+0xae>
  405000:	83 f8 09             	cmp    $0x9,%eax
  405003:	0f 84 d4 00 00 00    	je     4050dd <_ZN6jsonxxL13stream_stringERSoRKNSt7__cxx1112basic_stringIcSt11char_traitsIcESaIcEEE+0x16f>
  405009:	83 f8 0a             	cmp    $0xa,%eax
  40500c:	0f 84 9f 00 00 00    	je     4050b1 <_ZN6jsonxxL13stream_stringERSoRKNSt7__cxx1112basic_stringIcSt11char_traitsIcESaIcEEE+0x143>
  405012:	83 f8 08             	cmp    $0x8,%eax
  405015:	74 6e                	je     405085 <_ZN6jsonxxL13stream_stringERSoRKNSt7__cxx1112basic_stringIcSt11char_traitsIcESaIcEEE+0x117>
  405017:	e9 d7 00 00 00       	jmpq   4050f3 <_ZN6jsonxxL13stream_stringERSoRKNSt7__cxx1112basic_stringIcSt11char_traitsIcESaIcEEE+0x185>
  40501c:	83 f8 22             	cmp    $0x22,%eax
  40501f:	74 22                	je     405043 <_ZN6jsonxxL13stream_stringERSoRKNSt7__cxx1112basic_stringIcSt11char_traitsIcESaIcEEE+0xd5>
  405021:	83 f8 22             	cmp    $0x22,%eax
  405024:	7f 0e                	jg     405034 <_ZN6jsonxxL13stream_stringERSoRKNSt7__cxx1112basic_stringIcSt11char_traitsIcESaIcEEE+0xc6>
  405026:	83 f8 0d             	cmp    $0xd,%eax
  405029:	0f 84 98 00 00 00    	je     4050c7 <_ZN6jsonxxL13stream_stringERSoRKNSt7__cxx1112basic_stringIcSt11char_traitsIcESaIcEEE+0x159>
  40502f:	e9 bf 00 00 00       	jmpq   4050f3 <_ZN6jsonxxL13stream_stringERSoRKNSt7__cxx1112basic_stringIcSt11char_traitsIcESaIcEEE+0x185>
  405034:	83 f8 2f             	cmp    $0x2f,%eax
  405037:	74 36                	je     40506f <_ZN6jsonxxL13stream_stringERSoRKNSt7__cxx1112basic_stringIcSt11char_traitsIcESaIcEEE+0x101>
  405039:	83 f8 5c             	cmp    $0x5c,%eax
  40503c:	74 1b                	je     405059 <_ZN6jsonxxL13stream_stringERSoRKNSt7__cxx1112basic_stringIcSt11char_traitsIcESaIcEEE+0xeb>
  40503e:	e9 b0 00 00 00       	jmpq   4050f3 <_ZN6jsonxxL13stream_stringERSoRKNSt7__cxx1112basic_stringIcSt11char_traitsIcESaIcEEE+0x185>
  405043:	48 8b 45 b8          	mov    -0x48(%rbp),%rax
  405047:	be e4 c9 41 00       	mov    $0x41c9e4,%esi
  40504c:	48 89 c7             	mov    %rax,%rdi
  40504f:	e8 1c e7 ff ff       	callq  403770 <_ZStlsISt11char_traitsIcEERSt13basic_ostreamIcT_ES5_PKc@plt>
  405054:	e9 67 01 00 00       	jmpq   4051c0 <_ZN6jsonxxL13stream_stringERSoRKNSt7__cxx1112basic_stringIcSt11char_traitsIcESaIcEEE+0x252>
  405059:	48 8b 45 b8          	mov    -0x48(%rbp),%rax
  40505d:	be e7 c9 41 00       	mov    $0x41c9e7,%esi
  405062:	48 89 c7             	mov    %rax,%rdi
  405065:	e8 06 e7 ff ff       	callq  403770 <_ZStlsISt11char_traitsIcEERSt13basic_ostreamIcT_ES5_PKc@plt>
  40506a:	e9 51 01 00 00       	jmpq   4051c0 <_ZN6jsonxxL13stream_stringERSoRKNSt7__cxx1112basic_stringIcSt11char_traitsIcESaIcEEE+0x252>
  40506f:	48 8b 45 b8          	mov    -0x48(%rbp),%rax
  405073:	be ea c9 41 00       	mov    $0x41c9ea,%esi
  405078:	48 89 c7             	mov    %rax,%rdi
  40507b:	e8 f0 e6 ff ff       	callq  403770 <_ZStlsISt11char_traitsIcEERSt13basic_ostreamIcT_ES5_PKc@plt>
  405080:	e9 3b 01 00 00       	jmpq   4051c0 <_ZN6jsonxxL13stream_stringERSoRKNSt7__cxx1112basic_stringIcSt11char_traitsIcESaIcEEE+0x252>
  405085:	48 8b 45 b8          	mov    -0x48(%rbp),%rax
  405089:	be ed c9 41 00       	mov    $0x41c9ed,%esi
  40508e:	48 89 c7             	mov    %rax,%rdi
  405091:	e8 da e6 ff ff       	callq  403770 <_ZStlsISt11char_traitsIcEERSt13basic_ostreamIcT_ES5_PKc@plt>
  405096:	e9 25 01 00 00       	jmpq   4051c0 <_ZN6jsonxxL13stream_stringERSoRKNSt7__cxx1112basic_stringIcSt11char_traitsIcESaIcEEE+0x252>
  40509b:	48 8b 45 b8          	mov    -0x48(%rbp),%rax
  40509f:	be f0 c9 41 00       	mov    $0x41c9f0,%esi
  4050a4:	48 89 c7             	mov    %rax,%rdi
  4050a7:	e8 c4 e6 ff ff       	callq  403770 <_ZStlsISt11char_traitsIcEERSt13basic_ostreamIcT_ES5_PKc@plt>
  4050ac:	e9 0f 01 00 00       	jmpq   4051c0 <_ZN6jsonxxL13stream_stringERSoRKNSt7__cxx1112basic_stringIcSt11char_traitsIcESaIcEEE+0x252>
  4050b1:	48 8b 45 b8          	mov    -0x48(%rbp),%rax
  4050b5:	be f3 c9 41 00       	mov    $0x41c9f3,%esi
  4050ba:	48 89 c7             	mov    %rax,%rdi
  4050bd:	e8 ae e6 ff ff       	callq  403770 <_ZStlsISt11char_traitsIcEERSt13basic_ostreamIcT_ES5_PKc@plt>
  4050c2:	e9 f9 00 00 00       	jmpq   4051c0 <_ZN6jsonxxL13stream_stringERSoRKNSt7__cxx1112basic_stringIcSt11char_traitsIcESaIcEEE+0x252>
  4050c7:	48 8b 45 b8          	mov    -0x48(%rbp),%rax
  4050cb:	be f6 c9 41 00       	mov    $0x41c9f6,%esi
  4050d0:	48 89 c7             	mov    %rax,%rdi
  4050d3:	e8 98 e6 ff ff       	callq  403770 <_ZStlsISt11char_traitsIcEERSt13basic_ostreamIcT_ES5_PKc@plt>
  4050d8:	e9 e3 00 00 00       	jmpq   4051c0 <_ZN6jsonxxL13stream_stringERSoRKNSt7__cxx1112basic_stringIcSt11char_traitsIcESaIcEEE+0x252>
  4050dd:	48 8b 45 b8          	mov    -0x48(%rbp),%rax
  4050e1:	be f9 c9 41 00       	mov    $0x41c9f9,%esi
  4050e6:	48 89 c7             	mov    %rax,%rdi
  4050e9:	e8 82 e6 ff ff       	callq  403770 <_ZStlsISt11char_traitsIcEERSt13basic_ostreamIcT_ES5_PKc@plt>
  4050ee:	e9 cd 00 00 00       	jmpq   4051c0 <_ZN6jsonxxL13stream_stringERSoRKNSt7__cxx1112basic_stringIcSt11char_traitsIcESaIcEEE+0x252>
  4050f3:	48 8d 45 c0          	lea    -0x40(%rbp),%rax
  4050f7:	48 89 c7             	mov    %rax,%rdi
  4050fa:	e8 67 c1 00 00       	callq  411266 <_ZNK9__gnu_cxx17__normal_iteratorIPKcNSt7__cxx1112basic_stringIcSt11char_traitsIcESaIcEEEEdeEv>
  4050ff:	0f b6 00             	movzbl (%rax),%eax
  405102:	3c 1f                	cmp    $0x1f,%al
  405104:	0f 9e c0             	setle  %al
  405107:	84 c0                	test   %al,%al
  405109:	0f 84 91 00 00 00    	je     4051a0 <_ZN6jsonxxL13stream_stringERSoRKNSt7__cxx1112basic_stringIcSt11char_traitsIcESaIcEEE+0x232>
  40510f:	bf 00 00 00 00       	mov    $0x0,%edi
  405114:	e8 5f 91 00 00       	callq  40e278 <_ZSt4setwi>
  405119:	41 89 c4             	mov    %eax,%r12d
  40511c:	48 8d 45 c0          	lea    -0x40(%rbp),%rax
  405120:	48 89 c7             	mov    %rax,%rdi
  405123:	e8 3e c1 00 00       	callq  411266 <_ZNK9__gnu_cxx17__normal_iteratorIPKcNSt7__cxx1112basic_stringIcSt11char_traitsIcESaIcEEEEdeEv>
  405128:	0f b6 00             	movzbl (%rax),%eax
  40512b:	0f be d8             	movsbl %al,%ebx
  40512e:	bf 30 00 00 00       	mov    $0x30,%edi
  405133:	e8 3f c1 00 00       	callq  411277 <_ZSt7setfillIcESt8_SetfillIT_ES1_>
  405138:	41 89 c5             	mov    %eax,%r13d
  40513b:	bf 04 00 00 00       	mov    $0x4,%edi
  405140:	e8 33 91 00 00       	callq  40e278 <_ZSt4setwi>
  405145:	41 89 c6             	mov    %eax,%r14d
  405148:	48 8b 45 b8          	mov    -0x48(%rbp),%rax
  40514c:	be fc c9 41 00       	mov    $0x41c9fc,%esi
  405151:	48 89 c7             	mov    %rax,%rdi
  405154:	e8 17 e6 ff ff       	callq  403770 <_ZStlsISt11char_traitsIcEERSt13basic_ostreamIcT_ES5_PKc@plt>
  405159:	be 42 de 40 00       	mov    $0x40de42,%esi
  40515e:	48 89 c7             	mov    %rax,%rdi
  405161:	e8 aa e9 ff ff       	callq  403b10 <_ZNSolsEPFRSt8ios_baseS0_E@plt>
  405166:	44 89 f6             	mov    %r14d,%esi
  405169:	48 89 c7             	mov    %rax,%rdi
  40516c:	e8 7f e5 ff ff       	callq  4036f0 <_ZStlsIcSt11char_traitsIcEERSt13basic_ostreamIT_T0_ES6_St5_Setw@plt>
  405171:	44 89 ee             	mov    %r13d,%esi
  405174:	48 89 c7             	mov    %rax,%rdi
  405177:	e8 a4 e6 ff ff       	callq  403820 <_ZStlsIcSt11char_traitsIcEERSt13basic_ostreamIT_T0_ES6_St8_SetfillIS3_E@plt>
  40517c:	89 de                	mov    %ebx,%esi
  40517e:	48 89 c7             	mov    %rax,%rdi
  405181:	e8 4a e4 ff ff       	callq  4035d0 <_ZNSolsEi@plt>
  405186:	be 1a de 40 00       	mov    $0x40de1a,%esi
  40518b:	48 89 c7             	mov    %rax,%rdi
  40518e:	e8 7d e9 ff ff       	callq  403b10 <_ZNSolsEPFRSt8ios_baseS0_E@plt>
  405193:	44 89 e6             	mov    %r12d,%esi
  405196:	48 89 c7             	mov    %rax,%rdi
  405199:	e8 52 e5 ff ff       	callq  4036f0 <_ZStlsIcSt11char_traitsIcEERSt13basic_ostreamIT_T0_ES6_St5_Setw@plt>
  40519e:	eb 20                	jmp    4051c0 <_ZN6jsonxxL13stream_stringERSoRKNSt7__cxx1112basic_stringIcSt11char_traitsIcESaIcEEE+0x252>
  4051a0:	48 8d 45 c0          	lea    -0x40(%rbp),%rax
  4051a4:	48 89 c7             	mov    %rax,%rdi
  4051a7:	e8 ba c0 00 00       	callq  411266 <_ZNK9__gnu_cxx17__normal_iteratorIPKcNSt7__cxx1112basic_stringIcSt11char_traitsIcESaIcEEEEdeEv>
  4051ac:	0f b6 00             	movzbl (%rax),%eax
  4051af:	0f be d0             	movsbl %al,%edx
  4051b2:	48 8b 45 b8          	mov    -0x48(%rbp),%rax
  4051b6:	89 d6                	mov    %edx,%esi
  4051b8:	48 89 c7             	mov    %rax,%rdi
  4051bb:	e8 20 e6 ff ff       	callq  4037e0 <_ZStlsISt11char_traitsIcEERSt13basic_ostreamIcT_ES5_c@plt>
  4051c0:	48 8d 45 c0          	lea    -0x40(%rbp),%rax
  4051c4:	48 89 c7             	mov    %rax,%rdi
  4051c7:	e8 7a c0 00 00       	callq  411246 <_ZN9__gnu_cxx17__normal_iteratorIPKcNSt7__cxx1112basic_stringIcSt11char_traitsIcESaIcEEEEppEv>
  4051cc:	e9 f4 fd ff ff       	jmpq   404fc5 <_ZN6jsonxxL13stream_stringERSoRKNSt7__cxx1112basic_stringIcSt11char_traitsIcESaIcEEE+0x57>
  4051d1:	48 8b 45 b8          	mov    -0x48(%rbp),%rax
  4051d5:	be 22 00 00 00       	mov    $0x22,%esi
  4051da:	48 89 c7             	mov    %rax,%rdi
  4051dd:	e8 fe e5 ff ff       	callq  4037e0 <_ZStlsISt11char_traitsIcEERSt13basic_ostreamIcT_ES5_c@plt>
  4051e2:	48 8b 45 b8          	mov    -0x48(%rbp),%rax
  4051e6:	48 8b 4d d8          	mov    -0x28(%rbp),%rcx
  4051ea:	64 48 33 0c 25 28 00 	xor    %fs:0x28,%rcx
  4051f1:	00 00 
  4051f3:	74 05                	je     4051fa <_ZN6jsonxxL13stream_stringERSoRKNSt7__cxx1112basic_stringIcSt11char_traitsIcESaIcEEE+0x28c>
  4051f5:	e8 a6 e3 ff ff       	callq  4035a0 <__stack_chk_fail@plt>
  4051fa:	48 83 c4 30          	add    $0x30,%rsp
  4051fe:	5b                   	pop    %rbx
  4051ff:	41 5c                	pop    %r12
  405201:	41 5d                	pop    %r13
  405203:	41 5e                	pop    %r14
  405205:	5d                   	pop    %rbp
  405206:	c3                   	retq   

0000000000405207 <_ZlsRSoRKN6jsonxx5ValueE>:
  405207:	55                   	push   %rbp
  405208:	48 89 e5             	mov    %rsp,%rbp
  40520b:	48 83 ec 10          	sub    $0x10,%rsp
  40520f:	48 89 7d f8          	mov    %rdi,-0x8(%rbp)
  405213:	48 89 75 f0          	mov    %rsi,-0x10(%rbp)
  405217:	48 8b 45 f0          	mov    -0x10(%rbp),%rax
  40521b:	48 89 c7             	mov    %rax,%rdi
  40521e:	e8 77 8f 00 00       	callq  40e19a <_ZNK6jsonxx5Value2isIeEEbv>
  405223:	84 c0                	test   %al,%al
  405225:	74 2b                	je     405252 <_ZlsRSoRKN6jsonxx5ValueE+0x4b>
  405227:	48 8b 45 f0          	mov    -0x10(%rbp),%rax
  40522b:	48 89 c7             	mov    %rax,%rdi
  40522e:	e8 03 90 00 00       	callq  40e236 <_ZNK6jsonxx5Value3getIeEERKT_v>
  405233:	db 28                	fldt   (%rax)
  405235:	48 8b 45 f8          	mov    -0x8(%rbp),%rax
  405239:	48 8d 64 24 f0       	lea    -0x10(%rsp),%rsp
  40523e:	db 3c 24             	fstpt  (%rsp)
  405241:	48 89 c7             	mov    %rax,%rdi
  405244:	e8 27 e6 ff ff       	callq  403870 <_ZNSolsEe@plt>
  405249:	48 83 c4 10          	add    $0x10,%rsp
  40524d:	e9 09 01 00 00       	jmpq   40535b <_ZlsRSoRKN6jsonxx5ValueE+0x154>
  405252:	48 8b 45 f0          	mov    -0x10(%rbp),%rax
  405256:	48 89 c7             	mov    %rax,%rdi
  405259:	e8 26 8f 00 00       	callq  40e184 <_ZNK6jsonxx5Value2isINSt7__cxx1112basic_stringIcSt11char_traitsIcESaIcEEEEEbv>
  40525e:	84 c0                	test   %al,%al
  405260:	74 23                	je     405285 <_ZlsRSoRKN6jsonxx5ValueE+0x7e>
  405262:	48 8b 45 f0          	mov    -0x10(%rbp),%rax
  405266:	48 89 c7             	mov    %rax,%rdi
  405269:	e8 b6 8f 00 00       	callq  40e224 <_ZNK6jsonxx5Value3getINSt7__cxx1112basic_stringIcSt11char_traitsIcESaIcEEEEERKT_v>
  40526e:	48 89 c2             	mov    %rax,%rdx
  405271:	48 8b 45 f8          	mov    -0x8(%rbp),%rax
  405275:	48 89 d6             	mov    %rdx,%rsi
  405278:	48 89 c7             	mov    %rax,%rdi
  40527b:	e8 ee fc ff ff       	callq  404f6e <_ZN6jsonxxL13stream_stringERSoRKNSt7__cxx1112basic_stringIcSt11char_traitsIcESaIcEEE>
  405280:	e9 d6 00 00 00       	jmpq   40535b <_ZlsRSoRKN6jsonxx5ValueE+0x154>
  405285:	48 8b 45 f0          	mov    -0x10(%rbp),%rax
  405289:	48 89 c7             	mov    %rax,%rdi
  40528c:	e8 dd 8e 00 00       	callq  40e16e <_ZNK6jsonxx5Value2isIbEEbv>
  405291:	84 c0                	test   %al,%al
  405293:	74 3f                	je     4052d4 <_ZlsRSoRKN6jsonxx5ValueE+0xcd>
  405295:	48 8b 45 f0          	mov    -0x10(%rbp),%rax
  405299:	48 89 c7             	mov    %rax,%rdi
  40529c:	e8 71 8f 00 00       	callq  40e212 <_ZNK6jsonxx5Value3getIbEERKT_v>
  4052a1:	0f b6 00             	movzbl (%rax),%eax
  4052a4:	84 c0                	test   %al,%al
  4052a6:	74 16                	je     4052be <_ZlsRSoRKN6jsonxx5ValueE+0xb7>
  4052a8:	48 8b 45 f8          	mov    -0x8(%rbp),%rax
  4052ac:	be c8 c9 41 00       	mov    $0x41c9c8,%esi
  4052b1:	48 89 c7             	mov    %rax,%rdi
  4052b4:	e8 b7 e4 ff ff       	callq  403770 <_ZStlsISt11char_traitsIcEERSt13basic_ostreamIcT_ES5_PKc@plt>
  4052b9:	e9 9d 00 00 00       	jmpq   40535b <_ZlsRSoRKN6jsonxx5ValueE+0x154>
  4052be:	48 8b 45 f8          	mov    -0x8(%rbp),%rax
  4052c2:	be cd c9 41 00       	mov    $0x41c9cd,%esi
  4052c7:	48 89 c7             	mov    %rax,%rdi
  4052ca:	e8 a1 e4 ff ff       	callq  403770 <_ZStlsISt11char_traitsIcEERSt13basic_ostreamIcT_ES5_PKc@plt>
  4052cf:	e9 87 00 00 00       	jmpq   40535b <_ZlsRSoRKN6jsonxx5ValueE+0x154>
  4052d4:	48 8b 45 f0          	mov    -0x10(%rbp),%rax
  4052d8:	48 89 c7             	mov    %rax,%rdi
  4052db:	e8 78 8e 00 00       	callq  40e158 <_ZNK6jsonxx5Value2isINS_4NullEEEbv>
  4052e0:	84 c0                	test   %al,%al
  4052e2:	74 13                	je     4052f7 <_ZlsRSoRKN6jsonxx5ValueE+0xf0>
  4052e4:	48 8b 45 f8          	mov    -0x8(%rbp),%rax
  4052e8:	be d3 c9 41 00       	mov    $0x41c9d3,%esi
  4052ed:	48 89 c7             	mov    %rax,%rdi
  4052f0:	e8 7b e4 ff ff       	callq  403770 <_ZStlsISt11char_traitsIcEERSt13basic_ostreamIcT_ES5_PKc@plt>
  4052f5:	eb 64                	jmp    40535b <_ZlsRSoRKN6jsonxx5ValueE+0x154>
  4052f7:	48 8b 45 f0          	mov    -0x10(%rbp),%rax
  4052fb:	48 89 c7             	mov    %rax,%rdi
  4052fe:	e8 c3 8e 00 00       	callq  40e1c6 <_ZNK6jsonxx5Value2isINS_6ObjectEEEbv>
  405303:	84 c0                	test   %al,%al
  405305:	74 20                	je     405327 <_ZlsRSoRKN6jsonxx5ValueE+0x120>
  405307:	48 8b 45 f0          	mov    -0x10(%rbp),%rax
  40530b:	48 89 c7             	mov    %rax,%rdi
  40530e:	e8 47 8f 00 00       	callq  40e25a <_ZNK6jsonxx5Value3getINS_6ObjectEEERKT_v>
  405313:	48 89 c2             	mov    %rax,%rdx
  405316:	48 8b 45 f8          	mov    -0x8(%rbp),%rax
  40531a:	48 89 d6             	mov    %rdx,%rsi
  40531d:	48 89 c7             	mov    %rax,%rdi
  405320:	e8 2a 01 00 00       	callq  40544f <_ZlsRSoRKN6jsonxx6ObjectE>
  405325:	eb 34                	jmp    40535b <_ZlsRSoRKN6jsonxx5ValueE+0x154>
  405327:	48 8b 45 f0          	mov    -0x10(%rbp),%rax
  40532b:	48 89 c7             	mov    %rax,%rdi
  40532e:	e8 7d 8e 00 00       	callq  40e1b0 <_ZNK6jsonxx5Value2isINS_5ArrayEEEbv>
  405333:	84 c0                	test   %al,%al
  405335:	74 20                	je     405357 <_ZlsRSoRKN6jsonxx5ValueE+0x150>
  405337:	48 8b 45 f0          	mov    -0x10(%rbp),%rax
  40533b:	48 89 c7             	mov    %rax,%rdi
  40533e:	e8 05 8f 00 00       	callq  40e248 <_ZNK6jsonxx5Value3getINS_5ArrayEEERKT_v>
  405343:	48 89 c2             	mov    %rax,%rdx
  405346:	48 8b 45 f8          	mov    -0x8(%rbp),%rax
  40534a:	48 89 d6             	mov    %rdx,%rsi
  40534d:	48 89 c7             	mov    %rax,%rdi
  405350:	e8 08 00 00 00       	callq  40535d <_ZlsRSoRKN6jsonxx5ArrayE>
  405355:	eb 04                	jmp    40535b <_ZlsRSoRKN6jsonxx5ValueE+0x154>
  405357:	48 8b 45 f8          	mov    -0x8(%rbp),%rax
  40535b:	c9                   	leaveq 
  40535c:	c3                   	retq   

000000000040535d <_ZlsRSoRKN6jsonxx5ArrayE>:
  40535d:	55                   	push   %rbp
  40535e:	48 89 e5             	mov    %rsp,%rbp
  405361:	48 83 ec 30          	sub    $0x30,%rsp
  405365:	48 89 7d d8          	mov    %rdi,-0x28(%rbp)
  405369:	48 89 75 d0          	mov    %rsi,-0x30(%rbp)
  40536d:	64 48 8b 04 25 28 00 	mov    %fs:0x28,%rax
  405374:	00 00 
  405376:	48 89 45 f8          	mov    %rax,-0x8(%rbp)
  40537a:	31 c0                	xor    %eax,%eax
  40537c:	48 8b 45 d8          	mov    -0x28(%rbp),%rax
  405380:	be e0 c9 41 00       	mov    $0x41c9e0,%esi
  405385:	48 89 c7             	mov    %rax,%rdi
  405388:	e8 e3 e3 ff ff       	callq  403770 <_ZStlsISt11char_traitsIcEERSt13basic_ostreamIcT_ES5_PKc@plt>
  40538d:	48 8b 45 d0          	mov    -0x30(%rbp),%rax
  405391:	48 89 c7             	mov    %rax,%rdi
  405394:	e8 d1 8a 00 00       	callq  40de6a <_ZNK6jsonxx5Array6valuesEv>
  405399:	48 89 c7             	mov    %rax,%rdi
  40539c:	e8 e5 be 00 00       	callq  411286 <_ZNKSt6vectorIPN6jsonxx5ValueESaIS2_EE5beginEv>
  4053a1:	48 89 45 e0          	mov    %rax,-0x20(%rbp)
  4053a5:	48 8b 45 d0          	mov    -0x30(%rbp),%rax
  4053a9:	48 89 c7             	mov    %rax,%rdi
  4053ac:	e8 b9 8a 00 00       	callq  40de6a <_ZNK6jsonxx5Array6valuesEv>
  4053b1:	48 89 c7             	mov    %rax,%rdi
  4053b4:	e8 21 bf 00 00       	callq  4112da <_ZNKSt6vectorIPN6jsonxx5ValueESaIS2_EE3endEv>
  4053b9:	48 89 45 f0          	mov    %rax,-0x10(%rbp)
  4053bd:	48 8d 55 f0          	lea    -0x10(%rbp),%rdx
  4053c1:	48 8d 45 e0          	lea    -0x20(%rbp),%rax
  4053c5:	48 89 d6             	mov    %rdx,%rsi
  4053c8:	48 89 c7             	mov    %rax,%rdi
  4053cb:	e8 5e bf 00 00       	callq  41132e <_ZN9__gnu_cxxneIPKPN6jsonxx5ValueESt6vectorIS3_SaIS3_EEEEbRKNS_17__normal_iteratorIT_T0_EESE_>
  4053d0:	84 c0                	test   %al,%al
  4053d2:	74 54                	je     405428 <_ZlsRSoRKN6jsonxx5ArrayE+0xcb>
  4053d4:	48 8d 45 e0          	lea    -0x20(%rbp),%rax
  4053d8:	48 89 c7             	mov    %rax,%rdi
  4053db:	e8 8a bf 00 00       	callq  41136a <_ZNK9__gnu_cxx17__normal_iteratorIPKPN6jsonxx5ValueESt6vectorIS3_SaIS3_EEEdeEv>
  4053e0:	48 8b 10             	mov    (%rax),%rdx
  4053e3:	48 8b 45 d8          	mov    -0x28(%rbp),%rax
  4053e7:	48 89 d6             	mov    %rdx,%rsi
  4053ea:	48 89 c7             	mov    %rax,%rdi
  4053ed:	e8 15 fe ff ff       	callq  405207 <_ZlsRSoRKN6jsonxx5ValueE>
  4053f2:	48 8d 45 e0          	lea    -0x20(%rbp),%rax
  4053f6:	48 89 c7             	mov    %rax,%rdi
  4053f9:	e8 7e bf 00 00       	callq  41137c <_ZN9__gnu_cxx17__normal_iteratorIPKPN6jsonxx5ValueESt6vectorIS3_SaIS3_EEEppEv>
  4053fe:	48 8d 55 f0          	lea    -0x10(%rbp),%rdx
  405402:	48 8d 45 e0          	lea    -0x20(%rbp),%rax
  405406:	48 89 d6             	mov    %rdx,%rsi
  405409:	48 89 c7             	mov    %rax,%rdi
  40540c:	e8 1d bf 00 00       	callq  41132e <_ZN9__gnu_cxxneIPKPN6jsonxx5ValueESt6vectorIS3_SaIS3_EEEEbRKNS_17__normal_iteratorIT_T0_EESE_>
  405411:	84 c0                	test   %al,%al
  405413:	74 a8                	je     4053bd <_ZlsRSoRKN6jsonxx5ArrayE+0x60>
  405415:	48 8b 45 d8          	mov    -0x28(%rbp),%rax
  405419:	be ff c9 41 00       	mov    $0x41c9ff,%esi
  40541e:	48 89 c7             	mov    %rax,%rdi
  405421:	e8 4a e3 ff ff       	callq  403770 <_ZStlsISt11char_traitsIcEERSt13basic_ostreamIcT_ES5_PKc@plt>
  405426:	eb 95                	jmp    4053bd <_ZlsRSoRKN6jsonxx5ArrayE+0x60>
  405428:	48 8b 45 d8          	mov    -0x28(%rbp),%rax
  40542c:	be e2 c9 41 00       	mov    $0x41c9e2,%esi
  405431:	48 89 c7             	mov    %rax,%rdi
  405434:	e8 37 e3 ff ff       	callq  403770 <_ZStlsISt11char_traitsIcEERSt13basic_ostreamIcT_ES5_PKc@plt>
  405439:	48 8b 4d f8          	mov    -0x8(%rbp),%rcx
  40543d:	64 48 33 0c 25 28 00 	xor    %fs:0x28,%rcx
  405444:	00 00 
  405446:	74 05                	je     40544d <_ZlsRSoRKN6jsonxx5ArrayE+0xf0>
  405448:	e8 53 e1 ff ff       	callq  4035a0 <__stack_chk_fail@plt>
  40544d:	c9                   	leaveq 
  40544e:	c3                   	retq   

000000000040544f <_ZlsRSoRKN6jsonxx6ObjectE>:
  40544f:	55                   	push   %rbp
  405450:	48 89 e5             	mov    %rsp,%rbp
  405453:	53                   	push   %rbx
  405454:	48 83 ec 38          	sub    $0x38,%rsp
  405458:	48 89 7d c8          	mov    %rdi,-0x38(%rbp)
  40545c:	48 89 75 c0          	mov    %rsi,-0x40(%rbp)
  405460:	64 48 8b 04 25 28 00 	mov    %fs:0x28,%rax
  405467:	00 00 
  405469:	48 89 45 e8          	mov    %rax,-0x18(%rbp)
  40546d:	31 c0                	xor    %eax,%eax
  40546f:	48 8b 45 c8          	mov    -0x38(%rbp),%rax
  405473:	be d8 c9 41 00       	mov    $0x41c9d8,%esi
  405478:	48 89 c7             	mov    %rax,%rdi
  40547b:	e8 f0 e2 ff ff       	callq  403770 <_ZStlsISt11char_traitsIcEERSt13basic_ostreamIcT_ES5_PKc@plt>
  405480:	48 8b 45 c0          	mov    -0x40(%rbp),%rax
  405484:	48 89 c7             	mov    %rax,%rdi
  405487:	e8 94 52 00 00       	callq  40a720 <_ZNK6jsonxx6Object6kv_mapB5cxx11Ev>
  40548c:	48 89 c7             	mov    %rax,%rdi
  40548f:	e8 08 bf 00 00       	callq  41139c <_ZNKSt3mapINSt7__cxx1112basic_stringIcSt11char_traitsIcESaIcEEEPN6jsonxx5ValueESt4lessIS5_ESaISt4pairIKS5_S8_EEE5beginEv>
  405494:	48 89 45 d0          	mov    %rax,-0x30(%rbp)
  405498:	48 8b 45 c0          	mov    -0x40(%rbp),%rax
  40549c:	48 89 c7             	mov    %rax,%rdi
  40549f:	e8 7c 52 00 00       	callq  40a720 <_ZNK6jsonxx6Object6kv_mapB5cxx11Ev>
  4054a4:	48 89 c7             	mov    %rax,%rdi
  4054a7:	e8 0a bf 00 00       	callq  4113b6 <_ZNKSt3mapINSt7__cxx1112basic_stringIcSt11char_traitsIcESaIcEEEPN6jsonxx5ValueESt4lessIS5_ESaISt4pairIKS5_S8_EEE3endEv>
  4054ac:	48 89 45 e0          	mov    %rax,-0x20(%rbp)
  4054b0:	48 8d 55 e0          	lea    -0x20(%rbp),%rdx
  4054b4:	48 8d 45 d0          	lea    -0x30(%rbp),%rax
  4054b8:	48 89 d6             	mov    %rdx,%rsi
  4054bb:	48 89 c7             	mov    %rax,%rdi
  4054be:	e8 0d bf 00 00       	callq  4113d0 <_ZNKSt23_Rb_tree_const_iteratorISt4pairIKNSt7__cxx1112basic_stringIcSt11char_traitsIcESaIcEEEPN6jsonxx5ValueEEEneERKSC_>
  4054c3:	84 c0                	test   %al,%al
  4054c5:	0f 84 87 00 00 00    	je     405552 <_ZlsRSoRKN6jsonxx6ObjectE+0x103>
  4054cb:	48 8d 45 d0          	lea    -0x30(%rbp),%rax
  4054cf:	48 89 c7             	mov    %rax,%rdi
  4054d2:	e8 1b bf 00 00       	callq  4113f2 <_ZNKSt23_Rb_tree_const_iteratorISt4pairIKNSt7__cxx1112basic_stringIcSt11char_traitsIcESaIcEEEPN6jsonxx5ValueEEEptEv>
  4054d7:	48 89 c2             	mov    %rax,%rdx
  4054da:	48 8b 45 c8          	mov    -0x38(%rbp),%rax
  4054de:	48 89 d6             	mov    %rdx,%rsi
  4054e1:	48 89 c7             	mov    %rax,%rdi
  4054e4:	e8 85 fa ff ff       	callq  404f6e <_ZN6jsonxxL13stream_stringERSoRKNSt7__cxx1112basic_stringIcSt11char_traitsIcESaIcEEE>
  4054e9:	48 8d 45 d0          	lea    -0x30(%rbp),%rax
  4054ed:	48 89 c7             	mov    %rax,%rdi
  4054f0:	e8 fd be 00 00       	callq  4113f2 <_ZNKSt23_Rb_tree_const_iteratorISt4pairIKNSt7__cxx1112basic_stringIcSt11char_traitsIcESaIcEEEPN6jsonxx5ValueEEEptEv>
  4054f5:	48 8b 58 20          	mov    0x20(%rax),%rbx
  4054f9:	48 8b 45 c8          	mov    -0x38(%rbp),%rax
  4054fd:	be 02 ca 41 00       	mov    $0x41ca02,%esi
  405502:	48 89 c7             	mov    %rax,%rdi
  405505:	e8 66 e2 ff ff       	callq  403770 <_ZStlsISt11char_traitsIcEERSt13basic_ostreamIcT_ES5_PKc@plt>
  40550a:	48 89 de             	mov    %rbx,%rsi
  40550d:	48 89 c7             	mov    %rax,%rdi
  405510:	e8 f2 fc ff ff       	callq  405207 <_ZlsRSoRKN6jsonxx5ValueE>
  405515:	48 8d 45 d0          	lea    -0x30(%rbp),%rax
  405519:	48 89 c7             	mov    %rax,%rdi
  40551c:	e8 ef be 00 00       	callq  411410 <_ZNSt23_Rb_tree_const_iteratorISt4pairIKNSt7__cxx1112basic_stringIcSt11char_traitsIcESaIcEEEPN6jsonxx5ValueEEEppEv>
  405521:	48 8d 55 e0          	lea    -0x20(%rbp),%rdx
  405525:	48 8d 45 d0          	lea    -0x30(%rbp),%rax
  405529:	48 89 d6             	mov    %rdx,%rsi
  40552c:	48 89 c7             	mov    %rax,%rdi
  40552f:	e8 9c be 00 00       	callq  4113d0 <_ZNKSt23_Rb_tree_const_iteratorISt4pairIKNSt7__cxx1112basic_stringIcSt11char_traitsIcESaIcEEEPN6jsonxx5ValueEEEneERKSC_>
  405534:	84 c0                	test   %al,%al
  405536:	0f 84 74 ff ff ff    	je     4054b0 <_ZlsRSoRKN6jsonxx6ObjectE+0x61>
  40553c:	48 8b 45 c8          	mov    -0x38(%rbp),%rax
  405540:	be ff c9 41 00       	mov    $0x41c9ff,%esi
  405545:	48 89 c7             	mov    %rax,%rdi
  405548:	e8 23 e2 ff ff       	callq  403770 <_ZStlsISt11char_traitsIcEERSt13basic_ostreamIcT_ES5_PKc@plt>
  40554d:	e9 5e ff ff ff       	jmpq   4054b0 <_ZlsRSoRKN6jsonxx6ObjectE+0x61>
  405552:	48 8b 45 c8          	mov    -0x38(%rbp),%rax
  405556:	be da c9 41 00       	mov    $0x41c9da,%esi
  40555b:	48 89 c7             	mov    %rax,%rdi
  40555e:	e8 0d e2 ff ff       	callq  403770 <_ZStlsISt11char_traitsIcEERSt13basic_ostreamIcT_ES5_PKc@plt>
  405563:	48 8b 4d e8          	mov    -0x18(%rbp),%rcx
  405567:	64 48 33 0c 25 28 00 	xor    %fs:0x28,%rcx
  40556e:	00 00 
  405570:	74 05                	je     405577 <_ZlsRSoRKN6jsonxx6ObjectE+0x128>
  405572:	e8 29 e0 ff ff       	callq  4035a0 <__stack_chk_fail@plt>
  405577:	48 83 c4 38          	add    $0x38,%rsp
  40557b:	5b                   	pop    %rbx
  40557c:	5d                   	pop    %rbp
  40557d:	c3                   	retq   

000000000040557e <__tcf_0>:
  40557e:	55                   	push   %rbp
  40557f:	48 89 e5             	mov    %rsp,%rbp
  405582:	53                   	push   %rbx
  405583:	48 83 ec 18          	sub    $0x18,%rsp
  405587:	48 89 7d e8          	mov    %rdi,-0x18(%rbp)
  40558b:	bb 60 b7 62 00       	mov    $0x62b760,%ebx
  405590:	48 81 fb 60 97 62 00 	cmp    $0x629760,%rbx
  405597:	74 0e                	je     4055a7 <__tcf_0+0x29>
  405599:	48 83 eb 20          	sub    $0x20,%rbx
  40559d:	48 89 df             	mov    %rbx,%rdi
  4055a0:	e8 8b e2 ff ff       	callq  403830 <_ZNSt7__cxx1112basic_stringIcSt11char_traitsIcESaIcEED1Ev@plt>
  4055a5:	eb e9                	jmp    405590 <__tcf_0+0x12>
  4055a7:	48 83 c4 18          	add    $0x18,%rsp
  4055ab:	5b                   	pop    %rbx
  4055ac:	5d                   	pop    %rbp
  4055ad:	c3                   	retq   

00000000004055ae <_ZN6jsonxx12_GLOBAL__N_113escape_stringERKNSt7__cxx1112basic_stringIcSt11char_traitsIcESaIcEEEb>:
  4055ae:	55                   	push   %rbp
  4055af:	48 89 e5             	mov    %rsp,%rbp
  4055b2:	41 54                	push   %r12
  4055b4:	53                   	push   %rbx
  4055b5:	48 81 ec 00 02 00 00 	sub    $0x200,%rsp
  4055bc:	48 89 bd 08 fe ff ff 	mov    %rdi,-0x1f8(%rbp)
  4055c3:	48 89 b5 00 fe ff ff 	mov    %rsi,-0x200(%rbp)
  4055ca:	89 d0                	mov    %edx,%eax
  4055cc:	88 85 fc fd ff ff    	mov    %al,-0x204(%rbp)
  4055d2:	64 48 8b 04 25 28 00 	mov    %fs:0x28,%rax
  4055d9:	00 00 
  4055db:	48 89 45 e8          	mov    %rax,-0x18(%rbp)
  4055df:	31 c0                	xor    %eax,%eax
  4055e1:	b8 48 97 62 00       	mov    $0x629748,%eax
  4055e6:	0f b6 00             	movzbl (%rax),%eax
  4055e9:	84 c0                	test   %al,%al
  4055eb:	75 56                	jne    405643 <_ZN6jsonxx12_GLOBAL__N_113escape_stringERKNSt7__cxx1112basic_stringIcSt11char_traitsIcESaIcEEEb+0x95>
  4055ed:	bf 48 97 62 00       	mov    $0x629748,%edi
  4055f2:	e8 09 e0 ff ff       	callq  403600 <__cxa_guard_acquire@plt>
  4055f7:	85 c0                	test   %eax,%eax
  4055f9:	0f 95 c0             	setne  %al
  4055fc:	84 c0                	test   %al,%al
  4055fe:	74 43                	je     405643 <_ZN6jsonxx12_GLOBAL__N_113escape_stringERKNSt7__cxx1112basic_stringIcSt11char_traitsIcESaIcEEEb+0x95>
  405600:	b8 60 97 62 00       	mov    $0x629760,%eax
  405605:	bb ff 00 00 00       	mov    $0xff,%ebx
  40560a:	49 89 c4             	mov    %rax,%r12
  40560d:	48 83 fb ff          	cmp    $0xffffffffffffffff,%rbx
  405611:	74 12                	je     405625 <_ZN6jsonxx12_GLOBAL__N_113escape_stringERKNSt7__cxx1112basic_stringIcSt11char_traitsIcESaIcEEEb+0x77>
  405613:	4c 89 e7             	mov    %r12,%rdi
  405616:	e8 d5 df ff ff       	callq  4035f0 <_ZNSt7__cxx1112basic_stringIcSt11char_traitsIcESaIcEEC1Ev@plt>
  40561b:	49 83 c4 20          	add    $0x20,%r12
  40561f:	48 83 eb 01          	sub    $0x1,%rbx
  405623:	eb e8                	jmp    40560d <_ZN6jsonxx12_GLOBAL__N_113escape_stringERKNSt7__cxx1112basic_stringIcSt11char_traitsIcESaIcEEEb+0x5f>
  405625:	bf 48 97 62 00       	mov    $0x629748,%edi
  40562a:	e8 31 e1 ff ff       	callq  403760 <__cxa_guard_release@plt>
  40562f:	ba e8 93 62 00       	mov    $0x6293e8,%edx
  405634:	be 00 00 00 00       	mov    $0x0,%esi
  405639:	bf 7e 55 40 00       	mov    $0x40557e,%edi
  40563e:	e8 8d e2 ff ff       	callq  4038d0 <__cxa_atexit@plt>
  405643:	48 8b 05 56 a1 22 00 	mov    0x22a156(%rip),%rax        # 62f7a0 <_ZZN6jsonxx12_GLOBAL__N_113escape_stringERKNSt7__cxx1112basic_stringIcSt11char_traitsIcESaIcEEEbE4once>
  40564a:	48 85 c0             	test   %rax,%rax
  40564d:	0f 85 26 02 00 00    	jne    405879 <_ZN6jsonxx12_GLOBAL__N_113escape_stringERKNSt7__cxx1112basic_stringIcSt11char_traitsIcESaIcEEEb+0x2cb>
  405653:	c7 85 18 fe ff ff 00 	movl   $0x0,-0x1e8(%rbp)
  40565a:	00 00 00 
  40565d:	81 bd 18 fe ff ff ff 	cmpl   $0xff,-0x1e8(%rbp)
  405664:	00 00 00 
  405667:	0f 8f 82 00 00 00    	jg     4056ef <_ZN6jsonxx12_GLOBAL__N_113escape_stringERKNSt7__cxx1112basic_stringIcSt11char_traitsIcESaIcEEEb+0x141>
  40566d:	8b 85 18 fe ff ff    	mov    -0x1e8(%rbp),%eax
  405673:	0f be d8             	movsbl %al,%ebx
  405676:	48 8d 85 40 fe ff ff 	lea    -0x1c0(%rbp),%rax
  40567d:	48 89 c7             	mov    %rax,%rdi
  405680:	e8 6b df ff ff       	callq  4035f0 <_ZNSt7__cxx1112basic_stringIcSt11char_traitsIcESaIcEEC1Ev@plt>
  405685:	48 8d 85 60 fe ff ff 	lea    -0x1a0(%rbp),%rax
  40568c:	48 8d 8d 40 fe ff ff 	lea    -0x1c0(%rbp),%rcx
  405693:	89 da                	mov    %ebx,%edx
  405695:	48 89 ce             	mov    %rcx,%rsi
  405698:	48 89 c7             	mov    %rax,%rdi
  40569b:	e8 9b bd 00 00       	callq  41143b <_ZStplIcSt11char_traitsIcESaIcEENSt7__cxx1112basic_stringIT_T0_T1_EEOS8_S5_>
  4056a0:	8b 85 18 fe ff ff    	mov    -0x1e8(%rbp),%eax
  4056a6:	48 98                	cltq   
  4056a8:	48 c1 e0 05          	shl    $0x5,%rax
  4056ac:	48 8d 90 60 97 62 00 	lea    0x629760(%rax),%rdx
  4056b3:	48 8d 85 60 fe ff ff 	lea    -0x1a0(%rbp),%rax
  4056ba:	48 89 c6             	mov    %rax,%rsi
  4056bd:	48 89 d7             	mov    %rdx,%rdi
  4056c0:	e8 3b e0 ff ff       	callq  403700 <_ZNSt7__cxx1112basic_stringIcSt11char_traitsIcESaIcEEaSEOS4_@plt>
  4056c5:	48 8d 85 60 fe ff ff 	lea    -0x1a0(%rbp),%rax
  4056cc:	48 89 c7             	mov    %rax,%rdi
  4056cf:	e8 5c e1 ff ff       	callq  403830 <_ZNSt7__cxx1112basic_stringIcSt11char_traitsIcESaIcEED1Ev@plt>
  4056d4:	48 8d 85 40 fe ff ff 	lea    -0x1c0(%rbp),%rax
  4056db:	48 89 c7             	mov    %rax,%rdi
  4056de:	e8 4d e1 ff ff       	callq  403830 <_ZNSt7__cxx1112basic_stringIcSt11char_traitsIcESaIcEED1Ev@plt>
  4056e3:	83 85 18 fe ff ff 01 	addl   $0x1,-0x1e8(%rbp)
  4056ea:	e9 6e ff ff ff       	jmpq   40565d <_ZN6jsonxx12_GLOBAL__N_113escape_stringERKNSt7__cxx1112basic_stringIcSt11char_traitsIcESaIcEEEb+0xaf>
  4056ef:	c7 85 1c fe ff ff 00 	movl   $0x0,-0x1e4(%rbp)
  4056f6:	00 00 00 
  4056f9:	83 bd 1c fe ff ff 1f 	cmpl   $0x1f,-0x1e4(%rbp)
  405700:	0f 8f f0 00 00 00    	jg     4057f6 <_ZN6jsonxx12_GLOBAL__N_113escape_stringERKNSt7__cxx1112basic_stringIcSt11char_traitsIcESaIcEEEb+0x248>
  405706:	be 08 00 00 00       	mov    $0x8,%esi
  40570b:	bf 10 00 00 00       	mov    $0x10,%edi
  405710:	e8 8f 86 00 00       	callq  40dda4 <_ZStorSt13_Ios_OpenmodeS_>
  405715:	89 c2                	mov    %eax,%edx
  405717:	48 8d 85 60 fe ff ff 	lea    -0x1a0(%rbp),%rax
  40571e:	89 d6                	mov    %edx,%esi
  405720:	48 89 c7             	mov    %rax,%rdi
  405723:	e8 68 df ff ff       	callq  403690 <_ZNSt7__cxx1118basic_stringstreamIcSt11char_traitsIcESaIcEEC1ESt13_Ios_Openmode@plt>
  405728:	bf 30 00 00 00       	mov    $0x30,%edi
  40572d:	e8 45 bb 00 00       	callq  411277 <_ZSt7setfillIcESt8_SetfillIT_ES1_>
  405732:	89 c3                	mov    %eax,%ebx
  405734:	bf 04 00 00 00       	mov    $0x4,%edi
  405739:	e8 3a 8b 00 00       	callq  40e278 <_ZSt4setwi>
  40573e:	41 89 c4             	mov    %eax,%r12d
  405741:	48 8d 85 60 fe ff ff 	lea    -0x1a0(%rbp),%rax
  405748:	48 83 c0 10          	add    $0x10,%rax
  40574c:	be fc c9 41 00       	mov    $0x41c9fc,%esi
  405751:	48 89 c7             	mov    %rax,%rdi
  405754:	e8 17 e0 ff ff       	callq  403770 <_ZStlsISt11char_traitsIcEERSt13basic_ostreamIcT_ES5_PKc@plt>
  405759:	be 42 de 40 00       	mov    $0x40de42,%esi
  40575e:	48 89 c7             	mov    %rax,%rdi
  405761:	e8 aa e3 ff ff       	callq  403b10 <_ZNSolsEPFRSt8ios_baseS0_E@plt>
  405766:	44 89 e6             	mov    %r12d,%esi
  405769:	48 89 c7             	mov    %rax,%rdi
  40576c:	e8 7f df ff ff       	callq  4036f0 <_ZStlsIcSt11char_traitsIcEERSt13basic_ostreamIT_T0_ES6_St5_Setw@plt>
  405771:	89 de                	mov    %ebx,%esi
  405773:	48 89 c7             	mov    %rax,%rdi
  405776:	e8 a5 e0 ff ff       	callq  403820 <_ZStlsIcSt11char_traitsIcEERSt13basic_ostreamIT_T0_ES6_St8_SetfillIS3_E@plt>
  40577b:	48 89 c2             	mov    %rax,%rdx
  40577e:	8b 85 1c fe ff ff    	mov    -0x1e4(%rbp),%eax
  405784:	89 c6                	mov    %eax,%esi
  405786:	48 89 d7             	mov    %rdx,%rdi
  405789:	e8 42 de ff ff       	callq  4035d0 <_ZNSolsEi@plt>
  40578e:	48 8d 85 40 fe ff ff 	lea    -0x1c0(%rbp),%rax
  405795:	48 8d 95 60 fe ff ff 	lea    -0x1a0(%rbp),%rdx
  40579c:	48 89 d6             	mov    %rdx,%rsi
  40579f:	48 89 c7             	mov    %rax,%rdi
  4057a2:	e8 59 e0 ff ff       	callq  403800 <_ZNKSt7__cxx1118basic_stringstreamIcSt11char_traitsIcESaIcEE3strEv@plt>
  4057a7:	8b 85 1c fe ff ff    	mov    -0x1e4(%rbp),%eax
  4057ad:	48 98                	cltq   
  4057af:	48 c1 e0 05          	shl    $0x5,%rax
  4057b3:	48 8d 90 60 97 62 00 	lea    0x629760(%rax),%rdx
  4057ba:	48 8d 85 40 fe ff ff 	lea    -0x1c0(%rbp),%rax
  4057c1:	48 89 c6             	mov    %rax,%rsi
  4057c4:	48 89 d7             	mov    %rdx,%rdi
  4057c7:	e8 34 df ff ff       	callq  403700 <_ZNSt7__cxx1112basic_stringIcSt11char_traitsIcESaIcEEaSEOS4_@plt>
  4057cc:	48 8d 85 40 fe ff ff 	lea    -0x1c0(%rbp),%rax
  4057d3:	48 89 c7             	mov    %rax,%rdi
  4057d6:	e8 55 e0 ff ff       	callq  403830 <_ZNSt7__cxx1112basic_stringIcSt11char_traitsIcESaIcEED1Ev@plt>
  4057db:	48 8d 85 60 fe ff ff 	lea    -0x1a0(%rbp),%rax
  4057e2:	48 89 c7             	mov    %rax,%rdi
  4057e5:	e8 46 de ff ff       	callq  403630 <_ZNSt7__cxx1118basic_stringstreamIcSt11char_traitsIcESaIcEED1Ev@plt>
  4057ea:	83 85 1c fe ff ff 01 	addl   $0x1,-0x1e4(%rbp)
  4057f1:	e9 03 ff ff ff       	jmpq   4056f9 <_ZN6jsonxx12_GLOBAL__N_113escape_stringERKNSt7__cxx1112basic_stringIcSt11char_traitsIcESaIcEEEb+0x14b>
  4057f6:	be e4 c9 41 00       	mov    $0x41c9e4,%esi
  4057fb:	bf a0 9b 62 00       	mov    $0x629ba0,%edi
  405800:	e8 6b de ff ff       	callq  403670 <_ZNSt7__cxx1112basic_stringIcSt11char_traitsIcESaIcEEaSEPKc@plt>
  405805:	be e7 c9 41 00       	mov    $0x41c9e7,%esi
  40580a:	bf e0 a2 62 00       	mov    $0x62a2e0,%edi
  40580f:	e8 5c de ff ff       	callq  403670 <_ZNSt7__cxx1112basic_stringIcSt11char_traitsIcESaIcEEaSEPKc@plt>
  405814:	be ea c9 41 00       	mov    $0x41c9ea,%esi
  405819:	bf 40 9d 62 00       	mov    $0x629d40,%edi
  40581e:	e8 4d de ff ff       	callq  403670 <_ZNSt7__cxx1112basic_stringIcSt11char_traitsIcESaIcEEaSEPKc@plt>
  405823:	be ed c9 41 00       	mov    $0x41c9ed,%esi
  405828:	bf 60 98 62 00       	mov    $0x629860,%edi
  40582d:	e8 3e de ff ff       	callq  403670 <_ZNSt7__cxx1112basic_stringIcSt11char_traitsIcESaIcEEaSEPKc@plt>
  405832:	be f0 c9 41 00       	mov    $0x41c9f0,%esi
  405837:	bf e0 98 62 00       	mov    $0x6298e0,%edi
  40583c:	e8 2f de ff ff       	callq  403670 <_ZNSt7__cxx1112basic_stringIcSt11char_traitsIcESaIcEEaSEPKc@plt>
  405841:	be f3 c9 41 00       	mov    $0x41c9f3,%esi
  405846:	bf a0 98 62 00       	mov    $0x6298a0,%edi
  40584b:	e8 20 de ff ff       	callq  403670 <_ZNSt7__cxx1112basic_stringIcSt11char_traitsIcESaIcEEaSEPKc@plt>
  405850:	be f6 c9 41 00       	mov    $0x41c9f6,%esi
  405855:	bf 00 99 62 00       	mov    $0x629900,%edi
  40585a:	e8 11 de ff ff       	callq  403670 <_ZNSt7__cxx1112basic_stringIcSt11char_traitsIcESaIcEEaSEPKc@plt>
  40585f:	be f9 c9 41 00       	mov    $0x41c9f9,%esi
  405864:	bf 80 98 62 00       	mov    $0x629880,%edi
  405869:	e8 02 de ff ff       	callq  403670 <_ZNSt7__cxx1112basic_stringIcSt11char_traitsIcESaIcEEaSEPKc@plt>
  40586e:	48 c7 05 27 9f 22 00 	movq   $0x629760,0x229f27(%rip)        # 62f7a0 <_ZZN6jsonxx12_GLOBAL__N_113escape_stringERKNSt7__cxx1112basic_stringIcSt11char_traitsIcESaIcEEEbE4once>
  405875:	60 97 62 00 
  405879:	48 8b 85 08 fe ff ff 	mov    -0x1f8(%rbp),%rax
  405880:	48 89 c7             	mov    %rax,%rdi
  405883:	e8 68 dd ff ff       	callq  4035f0 <_ZNSt7__cxx1112basic_stringIcSt11char_traitsIcESaIcEEC1Ev@plt>
  405888:	48 8b 85 00 fe ff ff 	mov    -0x200(%rbp),%rax
  40588f:	48 89 c7             	mov    %rax,%rdi
  405892:	e8 f9 dc ff ff       	callq  403590 <_ZNKSt7__cxx1112basic_stringIcSt11char_traitsIcESaIcEE4sizeEv@plt>
  405897:	48 83 c0 01          	add    $0x1,%rax
  40589b:	48 8d 14 00          	lea    (%rax,%rax,1),%rdx
  40589f:	48 8b 85 08 fe ff ff 	mov    -0x1f8(%rbp),%rax
  4058a6:	48 89 d6             	mov    %rdx,%rsi
  4058a9:	48 89 c7             	mov    %rax,%rdi
  4058ac:	e8 df df ff ff       	callq  403890 <_ZNSt7__cxx1112basic_stringIcSt11char_traitsIcESaIcEE7reserveEm@plt>
  4058b1:	80 bd fc fd ff ff 00 	cmpb   $0x0,-0x204(%rbp)
  4058b8:	74 14                	je     4058ce <_ZN6jsonxx12_GLOBAL__N_113escape_stringERKNSt7__cxx1112basic_stringIcSt11char_traitsIcESaIcEEEb+0x320>
  4058ba:	48 8b 85 08 fe ff ff 	mov    -0x1f8(%rbp),%rax
  4058c1:	be 22 00 00 00       	mov    $0x22,%esi
  4058c6:	48 89 c7             	mov    %rax,%rdi
  4058c9:	e8 42 df ff ff       	callq  403810 <_ZNSt7__cxx1112basic_stringIcSt11char_traitsIcESaIcEEpLEc@plt>
  4058ce:	48 8b 85 00 fe ff ff 	mov    -0x200(%rbp),%rax
  4058d5:	48 89 c7             	mov    %rax,%rdi
  4058d8:	e8 73 dc ff ff       	callq  403550 <_ZNKSt7__cxx1112basic_stringIcSt11char_traitsIcESaIcEE5beginEv@plt>
  4058dd:	48 89 85 20 fe ff ff 	mov    %rax,-0x1e0(%rbp)
  4058e4:	48 8b 85 00 fe ff ff 	mov    -0x200(%rbp),%rax
  4058eb:	48 89 c7             	mov    %rax,%rdi
  4058ee:	e8 3d e1 ff ff       	callq  403a30 <_ZNKSt7__cxx1112basic_stringIcSt11char_traitsIcESaIcEE3endEv@plt>
  4058f3:	48 89 85 30 fe ff ff 	mov    %rax,-0x1d0(%rbp)
  4058fa:	48 8d 95 30 fe ff ff 	lea    -0x1d0(%rbp),%rdx
  405901:	48 8d 85 20 fe ff ff 	lea    -0x1e0(%rbp),%rax
  405908:	48 89 d6             	mov    %rdx,%rsi
  40590b:	48 89 c7             	mov    %rax,%rdi
  40590e:	e8 f7 b8 00 00       	callq  41120a <_ZN9__gnu_cxxneIPKcNSt7__cxx1112basic_stringIcSt11char_traitsIcESaIcEEEEEbRKNS_17__normal_iteratorIT_T0_EESE_>
  405913:	84 c0                	test   %al,%al
  405915:	74 45                	je     40595c <_ZN6jsonxx12_GLOBAL__N_113escape_stringERKNSt7__cxx1112basic_stringIcSt11char_traitsIcESaIcEEEb+0x3ae>
  405917:	48 8d 85 20 fe ff ff 	lea    -0x1e0(%rbp),%rax
  40591e:	48 89 c7             	mov    %rax,%rdi
  405921:	e8 40 b9 00 00       	callq  411266 <_ZNK9__gnu_cxx17__normal_iteratorIPKcNSt7__cxx1112basic_stringIcSt11char_traitsIcESaIcEEEEdeEv>
  405926:	0f b6 00             	movzbl (%rax),%eax
  405929:	0f b6 c0             	movzbl %al,%eax
  40592c:	48 98                	cltq   
  40592e:	48 c1 e0 05          	shl    $0x5,%rax
  405932:	48 8d 90 60 97 62 00 	lea    0x629760(%rax),%rdx
  405939:	48 8b 85 08 fe ff ff 	mov    -0x1f8(%rbp),%rax
  405940:	48 89 d6             	mov    %rdx,%rsi
  405943:	48 89 c7             	mov    %rax,%rdi
  405946:	e8 c5 da ff ff       	callq  403410 <_ZNSt7__cxx1112basic_stringIcSt11char_traitsIcESaIcEEpLERKS4_@plt>
  40594b:	48 8d 85 20 fe ff ff 	lea    -0x1e0(%rbp),%rax
  405952:	48 89 c7             	mov    %rax,%rdi
  405955:	e8 ec b8 00 00       	callq  411246 <_ZN9__gnu_cxx17__normal_iteratorIPKcNSt7__cxx1112basic_stringIcSt11char_traitsIcESaIcEEEEppEv>
  40595a:	eb 9e                	jmp    4058fa <_ZN6jsonxx12_GLOBAL__N_113escape_stringERKNSt7__cxx1112basic_stringIcSt11char_traitsIcESaIcEEEb+0x34c>
  40595c:	80 bd fc fd ff ff 00 	cmpb   $0x0,-0x204(%rbp)
  405963:	0f 84 95 00 00 00    	je     4059fe <_ZN6jsonxx12_GLOBAL__N_113escape_stringERKNSt7__cxx1112basic_stringIcSt11char_traitsIcESaIcEEEb+0x450>
  405969:	48 8b 85 08 fe ff ff 	mov    -0x1f8(%rbp),%rax
  405970:	be 22 00 00 00       	mov    $0x22,%esi
  405975:	48 89 c7             	mov    %rax,%rdi
  405978:	e8 93 de ff ff       	callq  403810 <_ZNSt7__cxx1112basic_stringIcSt11char_traitsIcESaIcEEpLEc@plt>
  40597d:	eb 7f                	jmp    4059fe <_ZN6jsonxx12_GLOBAL__N_113escape_stringERKNSt7__cxx1112basic_stringIcSt11char_traitsIcESaIcEEEb+0x450>
  40597f:	48 89 c3             	mov    %rax,%rbx
  405982:	48 8d 85 60 fe ff ff 	lea    -0x1a0(%rbp),%rax
  405989:	48 89 c7             	mov    %rax,%rdi
  40598c:	e8 9f de ff ff       	callq  403830 <_ZNSt7__cxx1112basic_stringIcSt11char_traitsIcESaIcEED1Ev@plt>
  405991:	eb 03                	jmp    405996 <_ZN6jsonxx12_GLOBAL__N_113escape_stringERKNSt7__cxx1112basic_stringIcSt11char_traitsIcESaIcEEEb+0x3e8>
  405993:	48 89 c3             	mov    %rax,%rbx
  405996:	48 8d 85 40 fe ff ff 	lea    -0x1c0(%rbp),%rax
  40599d:	48 89 c7             	mov    %rax,%rdi
  4059a0:	e8 8b de ff ff       	callq  403830 <_ZNSt7__cxx1112basic_stringIcSt11char_traitsIcESaIcEED1Ev@plt>
  4059a5:	48 89 d8             	mov    %rbx,%rax
  4059a8:	48 89 c7             	mov    %rax,%rdi
  4059ab:	e8 10 de ff ff       	callq  4037c0 <_Unwind_Resume@plt>
  4059b0:	48 89 c3             	mov    %rax,%rbx
  4059b3:	48 8d 85 40 fe ff ff 	lea    -0x1c0(%rbp),%rax
  4059ba:	48 89 c7             	mov    %rax,%rdi
  4059bd:	e8 6e de ff ff       	callq  403830 <_ZNSt7__cxx1112basic_stringIcSt11char_traitsIcESaIcEED1Ev@plt>
  4059c2:	eb 03                	jmp    4059c7 <_ZN6jsonxx12_GLOBAL__N_113escape_stringERKNSt7__cxx1112basic_stringIcSt11char_traitsIcESaIcEEEb+0x419>
  4059c4:	48 89 c3             	mov    %rax,%rbx
  4059c7:	48 8d 85 60 fe ff ff 	lea    -0x1a0(%rbp),%rax
  4059ce:	48 89 c7             	mov    %rax,%rdi
  4059d1:	e8 5a dc ff ff       	callq  403630 <_ZNSt7__cxx1118basic_stringstreamIcSt11char_traitsIcESaIcEED1Ev@plt>
  4059d6:	48 89 d8             	mov    %rbx,%rax
  4059d9:	48 89 c7             	mov    %rax,%rdi
  4059dc:	e8 df dd ff ff       	callq  4037c0 <_Unwind_Resume@plt>
  4059e1:	48 89 c3             	mov    %rax,%rbx
  4059e4:	48 8b 85 08 fe ff ff 	mov    -0x1f8(%rbp),%rax
  4059eb:	48 89 c7             	mov    %rax,%rdi
  4059ee:	e8 3d de ff ff       	callq  403830 <_ZNSt7__cxx1112basic_stringIcSt11char_traitsIcESaIcEED1Ev@plt>
  4059f3:	48 89 d8             	mov    %rbx,%rax
  4059f6:	48 89 c7             	mov    %rax,%rdi
  4059f9:	e8 c2 dd ff ff       	callq  4037c0 <_Unwind_Resume@plt>
  4059fe:	90                   	nop
  4059ff:	48 8b 85 08 fe ff ff 	mov    -0x1f8(%rbp),%rax
  405a06:	48 8b 4d e8          	mov    -0x18(%rbp),%rcx
  405a0a:	64 48 33 0c 25 28 00 	xor    %fs:0x28,%rcx
  405a11:	00 00 
  405a13:	74 05                	je     405a1a <_ZN6jsonxx12_GLOBAL__N_113escape_stringERKNSt7__cxx1112basic_stringIcSt11char_traitsIcESaIcEEEb+0x46c>
  405a15:	e8 86 db ff ff       	callq  4035a0 <__stack_chk_fail@plt>
  405a1a:	48 81 c4 00 02 00 00 	add    $0x200,%rsp
  405a21:	5b                   	pop    %rbx
  405a22:	41 5c                	pop    %r12
  405a24:	5d                   	pop    %rbp
  405a25:	c3                   	retq   

0000000000405a26 <_ZN6jsonxx12_GLOBAL__N_14json17remove_last_commaERKNSt7__cxx1112basic_stringIcSt11char_traitsIcESaIcEEE>:
  405a26:	55                   	push   %rbp
  405a27:	48 89 e5             	mov    %rsp,%rbp
  405a2a:	53                   	push   %rbx
  405a2b:	48 83 ec 28          	sub    $0x28,%rsp
  405a2f:	48 89 7d d8          	mov    %rdi,-0x28(%rbp)
  405a33:	48 89 75 d0          	mov    %rsi,-0x30(%rbp)
  405a37:	64 48 8b 04 25 28 00 	mov    %fs:0x28,%rax
  405a3e:	00 00 
  405a40:	48 89 45 e8          	mov    %rax,-0x18(%rbp)
  405a44:	31 c0                	xor    %eax,%eax
  405a46:	48 8b 55 d0          	mov    -0x30(%rbp),%rdx
  405a4a:	48 8b 45 d8          	mov    -0x28(%rbp),%rax
  405a4e:	48 89 d6             	mov    %rdx,%rsi
  405a51:	48 89 c7             	mov    %rax,%rdi
  405a54:	e8 47 da ff ff       	callq  4034a0 <_ZNSt7__cxx1112basic_stringIcSt11char_traitsIcESaIcEEC1ERKS4_@plt>
  405a59:	48 8b 45 d8          	mov    -0x28(%rbp),%rax
  405a5d:	48 89 c7             	mov    %rax,%rdi
  405a60:	e8 2b db ff ff       	callq  403590 <_ZNKSt7__cxx1112basic_stringIcSt11char_traitsIcESaIcEE4sizeEv@plt>
  405a65:	48 89 45 e0          	mov    %rax,-0x20(%rbp)
  405a69:	48 83 7d e0 02       	cmpq   $0x2,-0x20(%rbp)
  405a6e:	76 59                	jbe    405ac9 <_ZN6jsonxx12_GLOBAL__N_14json17remove_last_commaERKNSt7__cxx1112basic_stringIcSt11char_traitsIcESaIcEEE+0xa3>
  405a70:	48 8b 45 e0          	mov    -0x20(%rbp),%rax
  405a74:	48 8d 50 fe          	lea    -0x2(%rax),%rdx
  405a78:	48 8b 45 d8          	mov    -0x28(%rbp),%rax
  405a7c:	48 89 d6             	mov    %rdx,%rsi
  405a7f:	48 89 c7             	mov    %rax,%rdi
  405a82:	e8 09 e0 ff ff       	callq  403a90 <_ZNSt7__cxx1112basic_stringIcSt11char_traitsIcESaIcEEixEm@plt>
  405a87:	0f b6 00             	movzbl (%rax),%eax
  405a8a:	3c 2c                	cmp    $0x2c,%al
  405a8c:	0f 94 c0             	sete   %al
  405a8f:	84 c0                	test   %al,%al
  405a91:	74 36                	je     405ac9 <_ZN6jsonxx12_GLOBAL__N_14json17remove_last_commaERKNSt7__cxx1112basic_stringIcSt11char_traitsIcESaIcEEE+0xa3>
  405a93:	48 8b 45 e0          	mov    -0x20(%rbp),%rax
  405a97:	48 8d 50 fe          	lea    -0x2(%rax),%rdx
  405a9b:	48 8b 45 d8          	mov    -0x28(%rbp),%rax
  405a9f:	48 89 d6             	mov    %rdx,%rsi
  405aa2:	48 89 c7             	mov    %rax,%rdi
  405aa5:	e8 e6 df ff ff       	callq  403a90 <_ZNSt7__cxx1112basic_stringIcSt11char_traitsIcESaIcEEixEm@plt>
  405aaa:	c6 00 20             	movb   $0x20,(%rax)
  405aad:	eb 1a                	jmp    405ac9 <_ZN6jsonxx12_GLOBAL__N_14json17remove_last_commaERKNSt7__cxx1112basic_stringIcSt11char_traitsIcESaIcEEE+0xa3>
  405aaf:	48 89 c3             	mov    %rax,%rbx
  405ab2:	48 8b 45 d8          	mov    -0x28(%rbp),%rax
  405ab6:	48 89 c7             	mov    %rax,%rdi
  405ab9:	e8 72 dd ff ff       	callq  403830 <_ZNSt7__cxx1112basic_stringIcSt11char_traitsIcESaIcEED1Ev@plt>
  405abe:	48 89 d8             	mov    %rbx,%rax
  405ac1:	48 89 c7             	mov    %rax,%rdi
  405ac4:	e8 f7 dc ff ff       	callq  4037c0 <_Unwind_Resume@plt>
  405ac9:	90                   	nop
  405aca:	48 8b 45 d8          	mov    -0x28(%rbp),%rax
  405ace:	48 8b 4d e8          	mov    -0x18(%rbp),%rcx
  405ad2:	64 48 33 0c 25 28 00 	xor    %fs:0x28,%rcx
  405ad9:	00 00 
  405adb:	74 05                	je     405ae2 <_ZN6jsonxx12_GLOBAL__N_14json17remove_last_commaERKNSt7__cxx1112basic_stringIcSt11char_traitsIcESaIcEEE+0xbc>
  405add:	e8 be da ff ff       	callq  4035a0 <__stack_chk_fail@plt>
  405ae2:	48 83 c4 28          	add    $0x28,%rsp
  405ae6:	5b                   	pop    %rbx
  405ae7:	5d                   	pop    %rbp
  405ae8:	c3                   	retq   

0000000000405ae9 <_ZN6jsonxx12_GLOBAL__N_14json3tagEjjRKNSt7__cxx1112basic_stringIcSt11char_traitsIcESaIcEEERKNS_5ValueE>:
  405ae9:	55                   	push   %rbp
  405aea:	48 89 e5             	mov    %rsp,%rbp
  405aed:	53                   	push   %rbx
  405aee:	48 81 ec b8 03 00 00 	sub    $0x3b8,%rsp
  405af5:	48 89 bd 58 fc ff ff 	mov    %rdi,-0x3a8(%rbp)
  405afc:	89 b5 54 fc ff ff    	mov    %esi,-0x3ac(%rbp)
  405b02:	89 95 50 fc ff ff    	mov    %edx,-0x3b0(%rbp)
  405b08:	48 89 8d 48 fc ff ff 	mov    %rcx,-0x3b8(%rbp)
  405b0f:	4c 89 85 40 fc ff ff 	mov    %r8,-0x3c0(%rbp)
  405b16:	64 48 8b 04 25 28 00 	mov    %fs:0x28,%rax
  405b1d:	00 00 
  405b1f:	48 89 45 e8          	mov    %rax,-0x18(%rbp)
  405b23:	31 c0                	xor    %eax,%eax
  405b25:	be 08 00 00 00       	mov    $0x8,%esi
  405b2a:	bf 10 00 00 00       	mov    $0x10,%edi
  405b2f:	e8 70 82 00 00       	callq  40dda4 <_ZStorSt13_Ios_OpenmodeS_>
  405b34:	89 c2                	mov    %eax,%edx
  405b36:	48 8d 85 60 fe ff ff 	lea    -0x1a0(%rbp),%rax
  405b3d:	89 d6                	mov    %edx,%esi
  405b3f:	48 89 c7             	mov    %rax,%rdi
  405b42:	e8 49 db ff ff       	callq  403690 <_ZNSt7__cxx1118basic_stringstreamIcSt11char_traitsIcESaIcEEC1ESt13_Ios_Openmode@plt>
  405b47:	48 8d 85 70 fc ff ff 	lea    -0x390(%rbp),%rax
  405b4e:	48 89 c7             	mov    %rax,%rdi
  405b51:	e8 2a de ff ff       	callq  403980 <_ZNSaIcEC1Ev@plt>
  405b56:	8b b5 50 fc ff ff    	mov    -0x3b0(%rbp),%esi
  405b5c:	48 8d 95 70 fc ff ff 	lea    -0x390(%rbp),%rdx
  405b63:	48 8d 85 80 fc ff ff 	lea    -0x380(%rbp),%rax
  405b6a:	48 89 d1             	mov    %rdx,%rcx
  405b6d:	ba 09 00 00 00       	mov    $0x9,%edx
  405b72:	48 89 c7             	mov    %rax,%rdi
  405b75:	e8 c6 da ff ff       	callq  403640 <_ZNSt7__cxx1112basic_stringIcSt11char_traitsIcESaIcEEC1EmcRKS3_@plt>
  405b7a:	48 8d 85 70 fc ff ff 	lea    -0x390(%rbp),%rax
  405b81:	48 89 c7             	mov    %rax,%rdi
  405b84:	e8 a7 df ff ff       	callq  403b30 <_ZNSaIcED1Ev@plt>
  405b89:	48 8b 85 48 fc ff ff 	mov    -0x3b8(%rbp),%rax
  405b90:	48 89 c7             	mov    %rax,%rdi
  405b93:	e8 e8 d9 ff ff       	callq  403580 <_ZNKSt7__cxx1112basic_stringIcSt11char_traitsIcESaIcEE5emptyEv@plt>
  405b98:	83 f0 01             	xor    $0x1,%eax
  405b9b:	84 c0                	test   %al,%al
  405b9d:	0f 84 95 00 00 00    	je     405c38 <_ZN6jsonxx12_GLOBAL__N_14json3tagEjjRKNSt7__cxx1112basic_stringIcSt11char_traitsIcESaIcEEERKNS_5ValueE+0x14f>
  405ba3:	48 8d 85 a0 fc ff ff 	lea    -0x360(%rbp),%rax
  405baa:	48 8b 8d 48 fc ff ff 	mov    -0x3b8(%rbp),%rcx
  405bb1:	ba 00 00 00 00       	mov    $0x0,%edx
  405bb6:	48 89 ce             	mov    %rcx,%rsi
  405bb9:	48 89 c7             	mov    %rax,%rdi
  405bbc:	e8 ed f9 ff ff       	callq  4055ae <_ZN6jsonxx12_GLOBAL__N_113escape_stringERKNSt7__cxx1112basic_stringIcSt11char_traitsIcESaIcEEEb>
  405bc1:	48 8d 85 80 fc ff ff 	lea    -0x380(%rbp),%rax
  405bc8:	48 8d 95 60 fe ff ff 	lea    -0x1a0(%rbp),%rdx
  405bcf:	48 83 c2 10          	add    $0x10,%rdx
  405bd3:	48 89 c6             	mov    %rax,%rsi
  405bd6:	48 89 d7             	mov    %rdx,%rdi
  405bd9:	e8 d2 d9 ff ff       	callq  4035b0 <_ZStlsIcSt11char_traitsIcESaIcEERSt13basic_ostreamIT_T0_ES7_RKNSt7__cxx1112basic_stringIS4_S5_T1_EE@plt>
  405bde:	be 22 00 00 00       	mov    $0x22,%esi
  405be3:	48 89 c7             	mov    %rax,%rdi
  405be6:	e8 f5 db ff ff       	callq  4037e0 <_ZStlsISt11char_traitsIcEERSt13basic_ostreamIcT_ES5_c@plt>
  405beb:	48 89 c2             	mov    %rax,%rdx
  405bee:	48 8d 85 a0 fc ff ff 	lea    -0x360(%rbp),%rax
  405bf5:	48 89 c6             	mov    %rax,%rsi
  405bf8:	48 89 d7             	mov    %rdx,%rdi
  405bfb:	e8 b0 d9 ff ff       	callq  4035b0 <_ZStlsIcSt11char_traitsIcESaIcEERSt13basic_ostreamIT_T0_ES7_RKNSt7__cxx1112basic_stringIS4_S5_T1_EE@plt>
  405c00:	be 22 00 00 00       	mov    $0x22,%esi
  405c05:	48 89 c7             	mov    %rax,%rdi
  405c08:	e8 d3 db ff ff       	callq  4037e0 <_ZStlsISt11char_traitsIcEERSt13basic_ostreamIcT_ES5_c@plt>
  405c0d:	be 3a 00 00 00       	mov    $0x3a,%esi
  405c12:	48 89 c7             	mov    %rax,%rdi
  405c15:	e8 c6 db ff ff       	callq  4037e0 <_ZStlsISt11char_traitsIcEERSt13basic_ostreamIcT_ES5_c@plt>
  405c1a:	be 20 00 00 00       	mov    $0x20,%esi
  405c1f:	48 89 c7             	mov    %rax,%rdi
  405c22:	e8 b9 db ff ff       	callq  4037e0 <_ZStlsISt11char_traitsIcEERSt13basic_ostreamIcT_ES5_c@plt>
  405c27:	48 8d 85 a0 fc ff ff 	lea    -0x360(%rbp),%rax
  405c2e:	48 89 c7             	mov    %rax,%rdi
  405c31:	e8 fa db ff ff       	callq  403830 <_ZNSt7__cxx1112basic_stringIcSt11char_traitsIcESaIcEED1Ev@plt>
  405c36:	eb 1d                	jmp    405c55 <_ZN6jsonxx12_GLOBAL__N_14json3tagEjjRKNSt7__cxx1112basic_stringIcSt11char_traitsIcESaIcEEERKNS_5ValueE+0x16c>
  405c38:	48 8d 85 80 fc ff ff 	lea    -0x380(%rbp),%rax
  405c3f:	48 8d 95 60 fe ff ff 	lea    -0x1a0(%rbp),%rdx
  405c46:	48 83 c2 10          	add    $0x10,%rdx
  405c4a:	48 89 c6             	mov    %rax,%rsi
  405c4d:	48 89 d7             	mov    %rdx,%rdi
  405c50:	e8 5b d9 ff ff       	callq  4035b0 <_ZStlsIcSt11char_traitsIcESaIcEERSt13basic_ostreamIT_T0_ES7_RKNSt7__cxx1112basic_stringIS4_S5_T1_EE@plt>
  405c55:	48 8b 85 40 fc ff ff 	mov    -0x3c0(%rbp),%rax
  405c5c:	8b 00                	mov    (%rax),%eax
  405c5e:	83 f8 05             	cmp    $0x5,%eax
  405c61:	77 0c                	ja     405c6f <_ZN6jsonxx12_GLOBAL__N_14json3tagEjjRKNSt7__cxx1112basic_stringIcSt11char_traitsIcESaIcEEERKNS_5ValueE+0x186>
  405c63:	89 c0                	mov    %eax,%eax
  405c65:	48 8b 04 c5 18 ca 41 	mov    0x41ca18(,%rax,8),%rax
  405c6c:	00 
  405c6d:	ff e0                	jmpq   *%rax
  405c6f:	48 8d 85 60 fe ff ff 	lea    -0x1a0(%rbp),%rax
  405c76:	48 83 c0 10          	add    $0x10,%rax
  405c7a:	be d3 c9 41 00       	mov    $0x41c9d3,%esi
  405c7f:	48 89 c7             	mov    %rax,%rdi
  405c82:	e8 e9 da ff ff       	callq  403770 <_ZStlsISt11char_traitsIcEERSt13basic_ostreamIcT_ES5_PKc@plt>
  405c87:	48 8d 85 c0 fc ff ff 	lea    -0x340(%rbp),%rax
  405c8e:	48 8d 95 60 fe ff ff 	lea    -0x1a0(%rbp),%rdx
  405c95:	48 89 d6             	mov    %rdx,%rsi
  405c98:	48 89 c7             	mov    %rax,%rdi
  405c9b:	e8 60 db ff ff       	callq  403800 <_ZNKSt7__cxx1118basic_stringstreamIcSt11char_traitsIcESaIcEE3strEv@plt>
  405ca0:	48 8b 85 58 fc ff ff 	mov    -0x3a8(%rbp),%rax
  405ca7:	48 8d 8d c0 fc ff ff 	lea    -0x340(%rbp),%rcx
  405cae:	ba 05 ca 41 00       	mov    $0x41ca05,%edx
  405cb3:	48 89 ce             	mov    %rcx,%rsi
  405cb6:	48 89 c7             	mov    %rax,%rdi
  405cb9:	e8 c7 b7 00 00       	callq  411485 <_ZStplIcSt11char_traitsIcESaIcEENSt7__cxx1112basic_stringIT_T0_T1_EEOS8_PKS5_>
  405cbe:	90                   	nop
  405cbf:	48 8d 85 c0 fc ff ff 	lea    -0x340(%rbp),%rax
  405cc6:	48 89 c7             	mov    %rax,%rdi
  405cc9:	e8 62 db ff ff       	callq  403830 <_ZNSt7__cxx1112basic_stringIcSt11char_traitsIcESaIcEED1Ev@plt>
  405cce:	e9 28 05 00 00       	jmpq   4061fb <_ZN6jsonxx12_GLOBAL__N_14json3tagEjjRKNSt7__cxx1112basic_stringIcSt11char_traitsIcESaIcEEERKNS_5ValueE+0x712>
  405cd3:	48 8b 85 40 fc ff ff 	mov    -0x3c0(%rbp),%rax
  405cda:	0f b6 40 10          	movzbl 0x10(%rax),%eax
  405cde:	84 c0                	test   %al,%al
  405ce0:	74 07                	je     405ce9 <_ZN6jsonxx12_GLOBAL__N_14json3tagEjjRKNSt7__cxx1112basic_stringIcSt11char_traitsIcESaIcEEERKNS_5ValueE+0x200>
  405ce2:	ba c8 c9 41 00       	mov    $0x41c9c8,%edx
  405ce7:	eb 05                	jmp    405cee <_ZN6jsonxx12_GLOBAL__N_14json3tagEjjRKNSt7__cxx1112basic_stringIcSt11char_traitsIcESaIcEEERKNS_5ValueE+0x205>
  405ce9:	ba cd c9 41 00       	mov    $0x41c9cd,%edx
  405cee:	48 8d 85 60 fe ff ff 	lea    -0x1a0(%rbp),%rax
  405cf5:	48 83 c0 10          	add    $0x10,%rax
  405cf9:	48 89 d6             	mov    %rdx,%rsi
  405cfc:	48 89 c7             	mov    %rax,%rdi
  405cff:	e8 6c da ff ff       	callq  403770 <_ZStlsISt11char_traitsIcEERSt13basic_ostreamIcT_ES5_PKc@plt>
  405d04:	48 8d 85 e0 fc ff ff 	lea    -0x320(%rbp),%rax
  405d0b:	48 8d 95 60 fe ff ff 	lea    -0x1a0(%rbp),%rdx
  405d12:	48 89 d6             	mov    %rdx,%rsi
  405d15:	48 89 c7             	mov    %rax,%rdi
  405d18:	e8 e3 da ff ff       	callq  403800 <_ZNKSt7__cxx1118basic_stringstreamIcSt11char_traitsIcESaIcEE3strEv@plt>
  405d1d:	48 8b 85 58 fc ff ff 	mov    -0x3a8(%rbp),%rax
  405d24:	48 8d 8d e0 fc ff ff 	lea    -0x320(%rbp),%rcx
  405d2b:	ba 05 ca 41 00       	mov    $0x41ca05,%edx
  405d30:	48 89 ce             	mov    %rcx,%rsi
  405d33:	48 89 c7             	mov    %rax,%rdi
  405d36:	e8 4a b7 00 00       	callq  411485 <_ZStplIcSt11char_traitsIcESaIcEENSt7__cxx1112basic_stringIT_T0_T1_EEOS8_PKS5_>
  405d3b:	90                   	nop
  405d3c:	48 8d 85 e0 fc ff ff 	lea    -0x320(%rbp),%rax
  405d43:	48 89 c7             	mov    %rax,%rdi
  405d46:	e8 e5 da ff ff       	callq  403830 <_ZNSt7__cxx1112basic_stringIcSt11char_traitsIcESaIcEED1Ev@plt>
  405d4b:	e9 ab 04 00 00       	jmpq   4061fb <_ZN6jsonxx12_GLOBAL__N_14json3tagEjjRKNSt7__cxx1112basic_stringIcSt11char_traitsIcESaIcEEERKNS_5ValueE+0x712>
  405d50:	48 8d 85 60 fe ff ff 	lea    -0x1a0(%rbp),%rax
  405d57:	48 83 c0 10          	add    $0x10,%rax
  405d5b:	be 08 ca 41 00       	mov    $0x41ca08,%esi
  405d60:	48 89 c7             	mov    %rax,%rdi
  405d63:	e8 08 da ff ff       	callq  403770 <_ZStlsISt11char_traitsIcEERSt13basic_ostreamIcT_ES5_PKc@plt>
  405d68:	48 8b 85 40 fc ff ff 	mov    -0x3c0(%rbp),%rax
  405d6f:	48 8b 40 10          	mov    0x10(%rax),%rax
  405d73:	48 89 c7             	mov    %rax,%rdi
  405d76:	e8 ef 80 00 00       	callq  40de6a <_ZNK6jsonxx5Array6valuesEv>
  405d7b:	48 89 c7             	mov    %rax,%rdi
  405d7e:	e8 03 b5 00 00       	callq  411286 <_ZNKSt6vectorIPN6jsonxx5ValueESaIS2_EE5beginEv>
  405d83:	48 89 85 60 fc ff ff 	mov    %rax,-0x3a0(%rbp)
  405d8a:	48 8b 85 40 fc ff ff 	mov    -0x3c0(%rbp),%rax
  405d91:	48 8b 40 10          	mov    0x10(%rax),%rax
  405d95:	48 89 c7             	mov    %rax,%rdi
  405d98:	e8 cd 80 00 00       	callq  40de6a <_ZNK6jsonxx5Array6valuesEv>
  405d9d:	48 89 c7             	mov    %rax,%rdi
  405da0:	e8 35 b5 00 00       	callq  4112da <_ZNKSt6vectorIPN6jsonxx5ValueESaIS2_EE3endEv>
  405da5:	48 89 85 70 fc ff ff 	mov    %rax,-0x390(%rbp)
  405dac:	48 8d 95 70 fc ff ff 	lea    -0x390(%rbp),%rdx
  405db3:	48 8d 85 60 fc ff ff 	lea    -0x3a0(%rbp),%rax
  405dba:	48 89 d6             	mov    %rdx,%rsi
  405dbd:	48 89 c7             	mov    %rax,%rdi
  405dc0:	e8 69 b5 00 00       	callq  41132e <_ZN9__gnu_cxxneIPKPN6jsonxx5ValueESt6vectorIS3_SaIS3_EEEEbRKNS_17__normal_iteratorIT_T0_EESE_>
  405dc5:	84 c0                	test   %al,%al
  405dc7:	0f 84 9d 00 00 00    	je     405e6a <_ZN6jsonxx12_GLOBAL__N_14json3tagEjjRKNSt7__cxx1112basic_stringIcSt11char_traitsIcESaIcEEERKNS_5ValueE+0x381>
  405dcd:	48 8d 85 60 fc ff ff 	lea    -0x3a0(%rbp),%rax
  405dd4:	48 89 c7             	mov    %rax,%rdi
  405dd7:	e8 8e b5 00 00       	callq  41136a <_ZNK9__gnu_cxx17__normal_iteratorIPKPN6jsonxx5ValueESt6vectorIS3_SaIS3_EEEdeEv>
  405ddc:	48 8b 18             	mov    (%rax),%rbx
  405ddf:	48 8d 85 40 fe ff ff 	lea    -0x1c0(%rbp),%rax
  405de6:	48 89 c7             	mov    %rax,%rdi
  405de9:	e8 02 d8 ff ff       	callq  4035f0 <_ZNSt7__cxx1112basic_stringIcSt11char_traitsIcESaIcEEC1Ev@plt>
  405dee:	8b 85 50 fc ff ff    	mov    -0x3b0(%rbp),%eax
  405df4:	8d 78 01             	lea    0x1(%rax),%edi
  405df7:	48 8d 85 00 fd ff ff 	lea    -0x300(%rbp),%rax
  405dfe:	48 8d 95 40 fe ff ff 	lea    -0x1c0(%rbp),%rdx
  405e05:	8b b5 54 fc ff ff    	mov    -0x3ac(%rbp),%esi
  405e0b:	49 89 d8             	mov    %rbx,%r8
  405e0e:	48 89 d1             	mov    %rdx,%rcx
  405e11:	89 fa                	mov    %edi,%edx
  405e13:	48 89 c7             	mov    %rax,%rdi
  405e16:	e8 ce fc ff ff       	callq  405ae9 <_ZN6jsonxx12_GLOBAL__N_14json3tagEjjRKNSt7__cxx1112basic_stringIcSt11char_traitsIcESaIcEEERKNS_5ValueE>
  405e1b:	48 8d 85 00 fd ff ff 	lea    -0x300(%rbp),%rax
  405e22:	48 8d 95 60 fe ff ff 	lea    -0x1a0(%rbp),%rdx
  405e29:	48 83 c2 10          	add    $0x10,%rdx
  405e2d:	48 89 c6             	mov    %rax,%rsi
  405e30:	48 89 d7             	mov    %rdx,%rdi
  405e33:	e8 78 d7 ff ff       	callq  4035b0 <_ZStlsIcSt11char_traitsIcESaIcEERSt13basic_ostreamIT_T0_ES7_RKNSt7__cxx1112basic_stringIS4_S5_T1_EE@plt>
  405e38:	48 8d 85 00 fd ff ff 	lea    -0x300(%rbp),%rax
  405e3f:	48 89 c7             	mov    %rax,%rdi
  405e42:	e8 e9 d9 ff ff       	callq  403830 <_ZNSt7__cxx1112basic_stringIcSt11char_traitsIcESaIcEED1Ev@plt>
  405e47:	48 8d 85 40 fe ff ff 	lea    -0x1c0(%rbp),%rax
  405e4e:	48 89 c7             	mov    %rax,%rdi
  405e51:	e8 da d9 ff ff       	callq  403830 <_ZNSt7__cxx1112basic_stringIcSt11char_traitsIcESaIcEED1Ev@plt>
  405e56:	48 8d 85 60 fc ff ff 	lea    -0x3a0(%rbp),%rax
  405e5d:	48 89 c7             	mov    %rax,%rdi
  405e60:	e8 17 b5 00 00       	callq  41137c <_ZN9__gnu_cxx17__normal_iteratorIPKPN6jsonxx5ValueESt6vectorIS3_SaIS3_EEEppEv>
  405e65:	e9 42 ff ff ff       	jmpq   405dac <_ZN6jsonxx12_GLOBAL__N_14json3tagEjjRKNSt7__cxx1112basic_stringIcSt11char_traitsIcESaIcEEERKNS_5ValueE+0x2c3>
  405e6a:	48 8d 85 20 fd ff ff 	lea    -0x2e0(%rbp),%rax
  405e71:	48 8d 95 60 fe ff ff 	lea    -0x1a0(%rbp),%rdx
  405e78:	48 89 d6             	mov    %rdx,%rsi
  405e7b:	48 89 c7             	mov    %rax,%rdi
  405e7e:	e8 7d d9 ff ff       	callq  403800 <_ZNKSt7__cxx1118basic_stringstreamIcSt11char_traitsIcESaIcEE3strEv@plt>
  405e83:	48 8d 85 40 fd ff ff 	lea    -0x2c0(%rbp),%rax
  405e8a:	48 8d 95 20 fd ff ff 	lea    -0x2e0(%rbp),%rdx
  405e91:	48 89 d6             	mov    %rdx,%rsi
  405e94:	48 89 c7             	mov    %rax,%rdi
  405e97:	e8 8a fb ff ff       	callq  405a26 <_ZN6jsonxx12_GLOBAL__N_14json17remove_last_commaERKNSt7__cxx1112basic_stringIcSt11char_traitsIcESaIcEEE>
  405e9c:	48 8d 85 60 fd ff ff 	lea    -0x2a0(%rbp),%rax
  405ea3:	48 8d 95 80 fc ff ff 	lea    -0x380(%rbp),%rdx
  405eaa:	48 8d 8d 40 fd ff ff 	lea    -0x2c0(%rbp),%rcx
  405eb1:	48 89 ce             	mov    %rcx,%rsi
  405eb4:	48 89 c7             	mov    %rax,%rdi
  405eb7:	e8 10 b6 00 00       	callq  4114cc <_ZStplIcSt11char_traitsIcESaIcEENSt7__cxx1112basic_stringIT_T0_T1_EEOS8_RKS8_>
  405ebc:	48 8b 85 58 fc ff ff 	mov    -0x3a8(%rbp),%rax
  405ec3:	48 8d 8d 60 fd ff ff 	lea    -0x2a0(%rbp),%rcx
  405eca:	ba 0b ca 41 00       	mov    $0x41ca0b,%edx
  405ecf:	48 89 ce             	mov    %rcx,%rsi
  405ed2:	48 89 c7             	mov    %rax,%rdi
  405ed5:	e8 ab b5 00 00       	callq  411485 <_ZStplIcSt11char_traitsIcESaIcEENSt7__cxx1112basic_stringIT_T0_T1_EEOS8_PKS5_>
  405eda:	90                   	nop
  405edb:	48 8d 85 60 fd ff ff 	lea    -0x2a0(%rbp),%rax
  405ee2:	48 89 c7             	mov    %rax,%rdi
  405ee5:	e8 46 d9 ff ff       	callq  403830 <_ZNSt7__cxx1112basic_stringIcSt11char_traitsIcESaIcEED1Ev@plt>
  405eea:	48 8d 85 40 fd ff ff 	lea    -0x2c0(%rbp),%rax
  405ef1:	48 89 c7             	mov    %rax,%rdi
  405ef4:	e8 37 d9 ff ff       	callq  403830 <_ZNSt7__cxx1112basic_stringIcSt11char_traitsIcESaIcEED1Ev@plt>
  405ef9:	48 8d 85 20 fd ff ff 	lea    -0x2e0(%rbp),%rax
  405f00:	48 89 c7             	mov    %rax,%rdi
  405f03:	e8 28 d9 ff ff       	callq  403830 <_ZNSt7__cxx1112basic_stringIcSt11char_traitsIcESaIcEED1Ev@plt>
  405f08:	e9 ee 02 00 00       	jmpq   4061fb <_ZN6jsonxx12_GLOBAL__N_14json3tagEjjRKNSt7__cxx1112basic_stringIcSt11char_traitsIcESaIcEEERKNS_5ValueE+0x712>
  405f0d:	48 8b 85 40 fc ff ff 	mov    -0x3c0(%rbp),%rax
  405f14:	48 8b 48 10          	mov    0x10(%rax),%rcx
  405f18:	48 8d 85 80 fd ff ff 	lea    -0x280(%rbp),%rax
  405f1f:	ba 00 00 00 00       	mov    $0x0,%edx
  405f24:	48 89 ce             	mov    %rcx,%rsi
  405f27:	48 89 c7             	mov    %rax,%rdi
  405f2a:	e8 7f f6 ff ff       	callq  4055ae <_ZN6jsonxx12_GLOBAL__N_113escape_stringERKNSt7__cxx1112basic_stringIcSt11char_traitsIcESaIcEEEb>
  405f2f:	48 8d 85 60 fe ff ff 	lea    -0x1a0(%rbp),%rax
  405f36:	48 83 c0 10          	add    $0x10,%rax
  405f3a:	be 22 00 00 00       	mov    $0x22,%esi
  405f3f:	48 89 c7             	mov    %rax,%rdi
  405f42:	e8 99 d8 ff ff       	callq  4037e0 <_ZStlsISt11char_traitsIcEERSt13basic_ostreamIcT_ES5_c@plt>
  405f47:	48 89 c2             	mov    %rax,%rdx
  405f4a:	48 8d 85 80 fd ff ff 	lea    -0x280(%rbp),%rax
  405f51:	48 89 c6             	mov    %rax,%rsi
  405f54:	48 89 d7             	mov    %rdx,%rdi
  405f57:	e8 54 d6 ff ff       	callq  4035b0 <_ZStlsIcSt11char_traitsIcESaIcEERSt13basic_ostreamIT_T0_ES7_RKNSt7__cxx1112basic_stringIS4_S5_T1_EE@plt>
  405f5c:	be 22 00 00 00       	mov    $0x22,%esi
  405f61:	48 89 c7             	mov    %rax,%rdi
  405f64:	e8 77 d8 ff ff       	callq  4037e0 <_ZStlsISt11char_traitsIcEERSt13basic_ostreamIcT_ES5_c@plt>
  405f69:	48 8d 85 80 fd ff ff 	lea    -0x280(%rbp),%rax
  405f70:	48 89 c7             	mov    %rax,%rdi
  405f73:	e8 b8 d8 ff ff       	callq  403830 <_ZNSt7__cxx1112basic_stringIcSt11char_traitsIcESaIcEED1Ev@plt>
  405f78:	48 8d 85 a0 fd ff ff 	lea    -0x260(%rbp),%rax
  405f7f:	48 8d 95 60 fe ff ff 	lea    -0x1a0(%rbp),%rdx
  405f86:	48 89 d6             	mov    %rdx,%rsi
  405f89:	48 89 c7             	mov    %rax,%rdi
  405f8c:	e8 6f d8 ff ff       	callq  403800 <_ZNKSt7__cxx1118basic_stringstreamIcSt11char_traitsIcESaIcEE3strEv@plt>
  405f91:	48 8b 85 58 fc ff ff 	mov    -0x3a8(%rbp),%rax
  405f98:	48 8d 8d a0 fd ff ff 	lea    -0x260(%rbp),%rcx
  405f9f:	ba 05 ca 41 00       	mov    $0x41ca05,%edx
  405fa4:	48 89 ce             	mov    %rcx,%rsi
  405fa7:	48 89 c7             	mov    %rax,%rdi
  405faa:	e8 d6 b4 00 00       	callq  411485 <_ZStplIcSt11char_traitsIcESaIcEENSt7__cxx1112basic_stringIT_T0_T1_EEOS8_PKS5_>
  405faf:	90                   	nop
  405fb0:	48 8d 85 a0 fd ff ff 	lea    -0x260(%rbp),%rax
  405fb7:	48 89 c7             	mov    %rax,%rdi
  405fba:	e8 71 d8 ff ff       	callq  403830 <_ZNSt7__cxx1112basic_stringIcSt11char_traitsIcESaIcEED1Ev@plt>
  405fbf:	e9 37 02 00 00       	jmpq   4061fb <_ZN6jsonxx12_GLOBAL__N_14json3tagEjjRKNSt7__cxx1112basic_stringIcSt11char_traitsIcESaIcEEERKNS_5ValueE+0x712>
  405fc4:	48 8d 85 60 fe ff ff 	lea    -0x1a0(%rbp),%rax
  405fcb:	48 83 c0 10          	add    $0x10,%rax
  405fcf:	be 0f ca 41 00       	mov    $0x41ca0f,%esi
  405fd4:	48 89 c7             	mov    %rax,%rdi
  405fd7:	e8 94 d7 ff ff       	callq  403770 <_ZStlsISt11char_traitsIcEERSt13basic_ostreamIcT_ES5_PKc@plt>
  405fdc:	48 8b 85 40 fc ff ff 	mov    -0x3c0(%rbp),%rax
  405fe3:	48 8b 40 10          	mov    0x10(%rax),%rax
  405fe7:	48 89 c7             	mov    %rax,%rdi
  405fea:	e8 31 47 00 00       	callq  40a720 <_ZNK6jsonxx6Object6kv_mapB5cxx11Ev>
  405fef:	48 89 c7             	mov    %rax,%rdi
  405ff2:	e8 a5 b3 00 00       	callq  41139c <_ZNKSt3mapINSt7__cxx1112basic_stringIcSt11char_traitsIcESaIcEEEPN6jsonxx5ValueESt4lessIS5_ESaISt4pairIKS5_S8_EEE5beginEv>
  405ff7:	48 89 85 60 fc ff ff 	mov    %rax,-0x3a0(%rbp)
  405ffe:	48 8b 85 40 fc ff ff 	mov    -0x3c0(%rbp),%rax
  406005:	48 8b 40 10          	mov    0x10(%rax),%rax
  406009:	48 89 c7             	mov    %rax,%rdi
  40600c:	e8 0f 47 00 00       	callq  40a720 <_ZNK6jsonxx6Object6kv_mapB5cxx11Ev>
  406011:	48 89 c7             	mov    %rax,%rdi
  406014:	e8 9d b3 00 00       	callq  4113b6 <_ZNKSt3mapINSt7__cxx1112basic_stringIcSt11char_traitsIcESaIcEEEPN6jsonxx5ValueESt4lessIS5_ESaISt4pairIKS5_S8_EEE3endEv>
  406019:	48 89 85 70 fc ff ff 	mov    %rax,-0x390(%rbp)
  406020:	48 8d 95 70 fc ff ff 	lea    -0x390(%rbp),%rdx
  406027:	48 8d 85 60 fc ff ff 	lea    -0x3a0(%rbp),%rax
  40602e:	48 89 d6             	mov    %rdx,%rsi
  406031:	48 89 c7             	mov    %rax,%rdi
  406034:	e8 97 b3 00 00       	callq  4113d0 <_ZNKSt23_Rb_tree_const_iteratorISt4pairIKNSt7__cxx1112basic_stringIcSt11char_traitsIcESaIcEEEPN6jsonxx5ValueEEEneERKSC_>
  406039:	84 c0                	test   %al,%al
  40603b:	0f 84 86 00 00 00    	je     4060c7 <_ZN6jsonxx12_GLOBAL__N_14json3tagEjjRKNSt7__cxx1112basic_stringIcSt11char_traitsIcESaIcEEERKNS_5ValueE+0x5de>
  406041:	48 8d 85 60 fc ff ff 	lea    -0x3a0(%rbp),%rax
  406048:	48 89 c7             	mov    %rax,%rdi
  40604b:	e8 a2 b3 00 00       	callq  4113f2 <_ZNKSt23_Rb_tree_const_iteratorISt4pairIKNSt7__cxx1112basic_stringIcSt11char_traitsIcESaIcEEEPN6jsonxx5ValueEEEptEv>
  406050:	48 8b 58 20          	mov    0x20(%rax),%rbx
  406054:	48 8d 85 60 fc ff ff 	lea    -0x3a0(%rbp),%rax
  40605b:	48 89 c7             	mov    %rax,%rdi
  40605e:	e8 8f b3 00 00       	callq  4113f2 <_ZNKSt23_Rb_tree_const_iteratorISt4pairIKNSt7__cxx1112basic_stringIcSt11char_traitsIcESaIcEEEPN6jsonxx5ValueEEEptEv>
  406063:	48 89 c1             	mov    %rax,%rcx
  406066:	8b 85 50 fc ff ff    	mov    -0x3b0(%rbp),%eax
  40606c:	8d 50 01             	lea    0x1(%rax),%edx
  40606f:	48 8d 85 c0 fd ff ff 	lea    -0x240(%rbp),%rax
  406076:	8b b5 54 fc ff ff    	mov    -0x3ac(%rbp),%esi
  40607c:	49 89 d8             	mov    %rbx,%r8
  40607f:	48 89 c7             	mov    %rax,%rdi
  406082:	e8 62 fa ff ff       	callq  405ae9 <_ZN6jsonxx12_GLOBAL__N_14json3tagEjjRKNSt7__cxx1112basic_stringIcSt11char_traitsIcESaIcEEERKNS_5ValueE>
  406087:	48 8d 85 c0 fd ff ff 	lea    -0x240(%rbp),%rax
  40608e:	48 8d 95 60 fe ff ff 	lea    -0x1a0(%rbp),%rdx
  406095:	48 83 c2 10          	add    $0x10,%rdx
  406099:	48 89 c6             	mov    %rax,%rsi
  40609c:	48 89 d7             	mov    %rdx,%rdi
  40609f:	e8 0c d5 ff ff       	callq  4035b0 <_ZStlsIcSt11char_traitsIcESaIcEERSt13basic_ostreamIT_T0_ES7_RKNSt7__cxx1112basic_stringIS4_S5_T1_EE@plt>
  4060a4:	48 8d 85 c0 fd ff ff 	lea    -0x240(%rbp),%rax
  4060ab:	48 89 c7             	mov    %rax,%rdi
  4060ae:	e8 7d d7 ff ff       	callq  403830 <_ZNSt7__cxx1112basic_stringIcSt11char_traitsIcESaIcEED1Ev@plt>
  4060b3:	48 8d 85 60 fc ff ff 	lea    -0x3a0(%rbp),%rax
  4060ba:	48 89 c7             	mov    %rax,%rdi
  4060bd:	e8 4e b3 00 00       	callq  411410 <_ZNSt23_Rb_tree_const_iteratorISt4pairIKNSt7__cxx1112basic_stringIcSt11char_traitsIcESaIcEEEPN6jsonxx5ValueEEEppEv>
  4060c2:	e9 59 ff ff ff       	jmpq   406020 <_ZN6jsonxx12_GLOBAL__N_14json3tagEjjRKNSt7__cxx1112basic_stringIcSt11char_traitsIcESaIcEEERKNS_5ValueE+0x537>
  4060c7:	48 8d 85 e0 fd ff ff 	lea    -0x220(%rbp),%rax
  4060ce:	48 8d 95 60 fe ff ff 	lea    -0x1a0(%rbp),%rdx
  4060d5:	48 89 d6             	mov    %rdx,%rsi
  4060d8:	48 89 c7             	mov    %rax,%rdi
  4060db:	e8 20 d7 ff ff       	callq  403800 <_ZNKSt7__cxx1118basic_stringstreamIcSt11char_traitsIcESaIcEE3strEv@plt>
  4060e0:	48 8d 85 00 fe ff ff 	lea    -0x200(%rbp),%rax
  4060e7:	48 8d 95 e0 fd ff ff 	lea    -0x220(%rbp),%rdx
  4060ee:	48 89 d6             	mov    %rdx,%rsi
  4060f1:	48 89 c7             	mov    %rax,%rdi
  4060f4:	e8 2d f9 ff ff       	callq  405a26 <_ZN6jsonxx12_GLOBAL__N_14json17remove_last_commaERKNSt7__cxx1112basic_stringIcSt11char_traitsIcESaIcEEE>
  4060f9:	48 8d 85 20 fe ff ff 	lea    -0x1e0(%rbp),%rax
  406100:	48 8d 95 80 fc ff ff 	lea    -0x380(%rbp),%rdx
  406107:	48 8d 8d 00 fe ff ff 	lea    -0x200(%rbp),%rcx
  40610e:	48 89 ce             	mov    %rcx,%rsi
  406111:	48 89 c7             	mov    %rax,%rdi
  406114:	e8 b3 b3 00 00       	callq  4114cc <_ZStplIcSt11char_traitsIcESaIcEENSt7__cxx1112basic_stringIT_T0_T1_EEOS8_RKS8_>
  406119:	48 8b 85 58 fc ff ff 	mov    -0x3a8(%rbp),%rax
  406120:	48 8d 8d 20 fe ff ff 	lea    -0x1e0(%rbp),%rcx
  406127:	ba 12 ca 41 00       	mov    $0x41ca12,%edx
  40612c:	48 89 ce             	mov    %rcx,%rsi
  40612f:	48 89 c7             	mov    %rax,%rdi
  406132:	e8 4e b3 00 00       	callq  411485 <_ZStplIcSt11char_traitsIcESaIcEENSt7__cxx1112basic_stringIT_T0_T1_EEOS8_PKS5_>
  406137:	90                   	nop
  406138:	48 8d 85 20 fe ff ff 	lea    -0x1e0(%rbp),%rax
  40613f:	48 89 c7             	mov    %rax,%rdi
  406142:	e8 e9 d6 ff ff       	callq  403830 <_ZNSt7__cxx1112basic_stringIcSt11char_traitsIcESaIcEED1Ev@plt>
  406147:	48 8d 85 00 fe ff ff 	lea    -0x200(%rbp),%rax
  40614e:	48 89 c7             	mov    %rax,%rdi
  406151:	e8 da d6 ff ff       	callq  403830 <_ZNSt7__cxx1112basic_stringIcSt11char_traitsIcESaIcEED1Ev@plt>
  406156:	48 8d 85 e0 fd ff ff 	lea    -0x220(%rbp),%rax
  40615d:	48 89 c7             	mov    %rax,%rdi
  406160:	e8 cb d6 ff ff       	callq  403830 <_ZNSt7__cxx1112basic_stringIcSt11char_traitsIcESaIcEED1Ev@plt>
  406165:	e9 91 00 00 00       	jmpq   4061fb <_ZN6jsonxx12_GLOBAL__N_14json3tagEjjRKNSt7__cxx1112basic_stringIcSt11char_traitsIcESaIcEEERKNS_5ValueE+0x712>
  40616a:	bf 13 00 00 00       	mov    $0x13,%edi
  40616f:	e8 f8 80 00 00       	callq  40e26c <_ZSt12setprecisioni>
  406174:	89 c2                	mov    %eax,%edx
  406176:	48 8d 85 60 fe ff ff 	lea    -0x1a0(%rbp),%rax
  40617d:	48 83 c0 10          	add    $0x10,%rax
  406181:	89 d6                	mov    %edx,%esi
  406183:	48 89 c7             	mov    %rax,%rdi
  406186:	e8 a5 d2 ff ff       	callq  403430 <_ZStlsIcSt11char_traitsIcEERSt13basic_ostreamIT_T0_ES6_St13_Setprecision@plt>
  40618b:	48 8b 85 40 fc ff ff 	mov    -0x3c0(%rbp),%rax
  406192:	db 68 10             	fldt   0x10(%rax)
  406195:	48 8d 85 60 fe ff ff 	lea    -0x1a0(%rbp),%rax
  40619c:	48 83 c0 10          	add    $0x10,%rax
  4061a0:	48 8d 64 24 f0       	lea    -0x10(%rsp),%rsp
  4061a5:	db 3c 24             	fstpt  (%rsp)
  4061a8:	48 89 c7             	mov    %rax,%rdi
  4061ab:	e8 c0 d6 ff ff       	callq  403870 <_ZNSolsEe@plt>
  4061b0:	48 83 c4 10          	add    $0x10,%rsp
  4061b4:	48 8d 85 40 fe ff ff 	lea    -0x1c0(%rbp),%rax
  4061bb:	48 8d 95 60 fe ff ff 	lea    -0x1a0(%rbp),%rdx
  4061c2:	48 89 d6             	mov    %rdx,%rsi
  4061c5:	48 89 c7             	mov    %rax,%rdi
  4061c8:	e8 33 d6 ff ff       	callq  403800 <_ZNKSt7__cxx1118basic_stringstreamIcSt11char_traitsIcESaIcEE3strEv@plt>
  4061cd:	48 8b 85 58 fc ff ff 	mov    -0x3a8(%rbp),%rax
  4061d4:	48 8d 8d 40 fe ff ff 	lea    -0x1c0(%rbp),%rcx
  4061db:	ba 05 ca 41 00       	mov    $0x41ca05,%edx
  4061e0:	48 89 ce             	mov    %rcx,%rsi
  4061e3:	48 89 c7             	mov    %rax,%rdi
  4061e6:	e8 9a b2 00 00       	callq  411485 <_ZStplIcSt11char_traitsIcESaIcEENSt7__cxx1112basic_stringIT_T0_T1_EEOS8_PKS5_>
  4061eb:	90                   	nop
  4061ec:	48 8d 85 40 fe ff ff 	lea    -0x1c0(%rbp),%rax
  4061f3:	48 89 c7             	mov    %rax,%rdi
  4061f6:	e8 35 d6 ff ff       	callq  403830 <_ZNSt7__cxx1112basic_stringIcSt11char_traitsIcESaIcEED1Ev@plt>
  4061fb:	48 8d 85 80 fc ff ff 	lea    -0x380(%rbp),%rax
  406202:	48 89 c7             	mov    %rax,%rdi
  406205:	e8 26 d6 ff ff       	callq  403830 <_ZNSt7__cxx1112basic_stringIcSt11char_traitsIcESaIcEED1Ev@plt>
  40620a:	48 8d 85 60 fe ff ff 	lea    -0x1a0(%rbp),%rax
  406211:	48 89 c7             	mov    %rax,%rdi
  406214:	e8 17 d4 ff ff       	callq  403630 <_ZNSt7__cxx1118basic_stringstreamIcSt11char_traitsIcESaIcEED1Ev@plt>
  406219:	48 8b 85 58 fc ff ff 	mov    -0x3a8(%rbp),%rax
  406220:	48 8b 4d e8          	mov    -0x18(%rbp),%rcx
  406224:	64 48 33 0c 25 28 00 	xor    %fs:0x28,%rcx
  40622b:	00 00 
  40622d:	0f 84 88 01 00 00    	je     4063bb <_ZN6jsonxx12_GLOBAL__N_14json3tagEjjRKNSt7__cxx1112basic_stringIcSt11char_traitsIcESaIcEEERKNS_5ValueE+0x8d2>
  406233:	e9 7e 01 00 00       	jmpq   4063b6 <_ZN6jsonxx12_GLOBAL__N_14json3tagEjjRKNSt7__cxx1112basic_stringIcSt11char_traitsIcESaIcEEERKNS_5ValueE+0x8cd>
  406238:	48 89 c3             	mov    %rax,%rbx
  40623b:	48 8d 85 70 fc ff ff 	lea    -0x390(%rbp),%rax
  406242:	48 89 c7             	mov    %rax,%rdi
  406245:	e8 e6 d8 ff ff       	callq  403b30 <_ZNSaIcED1Ev@plt>
  40624a:	e9 4d 01 00 00       	jmpq   40639c <_ZN6jsonxx12_GLOBAL__N_14json3tagEjjRKNSt7__cxx1112basic_stringIcSt11char_traitsIcESaIcEEERKNS_5ValueE+0x8b3>
  40624f:	48 89 c3             	mov    %rax,%rbx
  406252:	48 8d 85 a0 fc ff ff 	lea    -0x360(%rbp),%rax
  406259:	48 89 c7             	mov    %rax,%rdi
  40625c:	e8 cf d5 ff ff       	callq  403830 <_ZNSt7__cxx1112basic_stringIcSt11char_traitsIcESaIcEED1Ev@plt>
  406261:	e9 27 01 00 00       	jmpq   40638d <_ZN6jsonxx12_GLOBAL__N_14json3tagEjjRKNSt7__cxx1112basic_stringIcSt11char_traitsIcESaIcEEERKNS_5ValueE+0x8a4>
  406266:	48 89 c3             	mov    %rax,%rbx
  406269:	48 8d 85 c0 fc ff ff 	lea    -0x340(%rbp),%rax
  406270:	48 89 c7             	mov    %rax,%rdi
  406273:	e8 b8 d5 ff ff       	callq  403830 <_ZNSt7__cxx1112basic_stringIcSt11char_traitsIcESaIcEED1Ev@plt>
  406278:	e9 10 01 00 00       	jmpq   40638d <_ZN6jsonxx12_GLOBAL__N_14json3tagEjjRKNSt7__cxx1112basic_stringIcSt11char_traitsIcESaIcEEERKNS_5ValueE+0x8a4>
  40627d:	48 89 c3             	mov    %rax,%rbx
  406280:	48 8d 85 e0 fc ff ff 	lea    -0x320(%rbp),%rax
  406287:	48 89 c7             	mov    %rax,%rdi
  40628a:	e8 a1 d5 ff ff       	callq  403830 <_ZNSt7__cxx1112basic_stringIcSt11char_traitsIcESaIcEED1Ev@plt>
  40628f:	e9 f9 00 00 00       	jmpq   40638d <_ZN6jsonxx12_GLOBAL__N_14json3tagEjjRKNSt7__cxx1112basic_stringIcSt11char_traitsIcESaIcEEERKNS_5ValueE+0x8a4>
  406294:	48 89 c3             	mov    %rax,%rbx
  406297:	48 8d 85 00 fd ff ff 	lea    -0x300(%rbp),%rax
  40629e:	48 89 c7             	mov    %rax,%rdi
  4062a1:	e8 8a d5 ff ff       	callq  403830 <_ZNSt7__cxx1112basic_stringIcSt11char_traitsIcESaIcEED1Ev@plt>
  4062a6:	eb 03                	jmp    4062ab <_ZN6jsonxx12_GLOBAL__N_14json3tagEjjRKNSt7__cxx1112basic_stringIcSt11char_traitsIcESaIcEEERKNS_5ValueE+0x7c2>
  4062a8:	48 89 c3             	mov    %rax,%rbx
  4062ab:	48 8d 85 40 fe ff ff 	lea    -0x1c0(%rbp),%rax
  4062b2:	48 89 c7             	mov    %rax,%rdi
  4062b5:	e8 76 d5 ff ff       	callq  403830 <_ZNSt7__cxx1112basic_stringIcSt11char_traitsIcESaIcEED1Ev@plt>
  4062ba:	e9 ce 00 00 00       	jmpq   40638d <_ZN6jsonxx12_GLOBAL__N_14json3tagEjjRKNSt7__cxx1112basic_stringIcSt11char_traitsIcESaIcEEERKNS_5ValueE+0x8a4>
  4062bf:	48 89 c3             	mov    %rax,%rbx
  4062c2:	48 8d 85 60 fd ff ff 	lea    -0x2a0(%rbp),%rax
  4062c9:	48 89 c7             	mov    %rax,%rdi
  4062cc:	e8 5f d5 ff ff       	callq  403830 <_ZNSt7__cxx1112basic_stringIcSt11char_traitsIcESaIcEED1Ev@plt>
  4062d1:	eb 03                	jmp    4062d6 <_ZN6jsonxx12_GLOBAL__N_14json3tagEjjRKNSt7__cxx1112basic_stringIcSt11char_traitsIcESaIcEEERKNS_5ValueE+0x7ed>
  4062d3:	48 89 c3             	mov    %rax,%rbx
  4062d6:	48 8d 85 40 fd ff ff 	lea    -0x2c0(%rbp),%rax
  4062dd:	48 89 c7             	mov    %rax,%rdi
  4062e0:	e8 4b d5 ff ff       	callq  403830 <_ZNSt7__cxx1112basic_stringIcSt11char_traitsIcESaIcEED1Ev@plt>
  4062e5:	eb 03                	jmp    4062ea <_ZN6jsonxx12_GLOBAL__N_14json3tagEjjRKNSt7__cxx1112basic_stringIcSt11char_traitsIcESaIcEEERKNS_5ValueE+0x801>
  4062e7:	48 89 c3             	mov    %rax,%rbx
  4062ea:	48 8d 85 20 fd ff ff 	lea    -0x2e0(%rbp),%rax
  4062f1:	48 89 c7             	mov    %rax,%rdi
  4062f4:	e8 37 d5 ff ff       	callq  403830 <_ZNSt7__cxx1112basic_stringIcSt11char_traitsIcESaIcEED1Ev@plt>
  4062f9:	e9 8f 00 00 00       	jmpq   40638d <_ZN6jsonxx12_GLOBAL__N_14json3tagEjjRKNSt7__cxx1112basic_stringIcSt11char_traitsIcESaIcEEERKNS_5ValueE+0x8a4>
  4062fe:	48 89 c3             	mov    %rax,%rbx
  406301:	48 8d 85 80 fd ff ff 	lea    -0x280(%rbp),%rax
  406308:	48 89 c7             	mov    %rax,%rdi
  40630b:	e8 20 d5 ff ff       	callq  403830 <_ZNSt7__cxx1112basic_stringIcSt11char_traitsIcESaIcEED1Ev@plt>
  406310:	eb 7b                	jmp    40638d <_ZN6jsonxx12_GLOBAL__N_14json3tagEjjRKNSt7__cxx1112basic_stringIcSt11char_traitsIcESaIcEEERKNS_5ValueE+0x8a4>
  406312:	48 89 c3             	mov    %rax,%rbx
  406315:	48 8d 85 a0 fd ff ff 	lea    -0x260(%rbp),%rax
  40631c:	48 89 c7             	mov    %rax,%rdi
  40631f:	e8 0c d5 ff ff       	callq  403830 <_ZNSt7__cxx1112basic_stringIcSt11char_traitsIcESaIcEED1Ev@plt>
  406324:	eb 67                	jmp    40638d <_ZN6jsonxx12_GLOBAL__N_14json3tagEjjRKNSt7__cxx1112basic_stringIcSt11char_traitsIcESaIcEEERKNS_5ValueE+0x8a4>
  406326:	48 89 c3             	mov    %rax,%rbx
  406329:	48 8d 85 c0 fd ff ff 	lea    -0x240(%rbp),%rax
  406330:	48 89 c7             	mov    %rax,%rdi
  406333:	e8 f8 d4 ff ff       	callq  403830 <_ZNSt7__cxx1112basic_stringIcSt11char_traitsIcESaIcEED1Ev@plt>
  406338:	eb 53                	jmp    40638d <_ZN6jsonxx12_GLOBAL__N_14json3tagEjjRKNSt7__cxx1112basic_stringIcSt11char_traitsIcESaIcEEERKNS_5ValueE+0x8a4>
  40633a:	48 89 c3             	mov    %rax,%rbx
  40633d:	48 8d 85 20 fe ff ff 	lea    -0x1e0(%rbp),%rax
  406344:	48 89 c7             	mov    %rax,%rdi
  406347:	e8 e4 d4 ff ff       	callq  403830 <_ZNSt7__cxx1112basic_stringIcSt11char_traitsIcESaIcEED1Ev@plt>
  40634c:	eb 03                	jmp    406351 <_ZN6jsonxx12_GLOBAL__N_14json3tagEjjRKNSt7__cxx1112basic_stringIcSt11char_traitsIcESaIcEEERKNS_5ValueE+0x868>
  40634e:	48 89 c3             	mov    %rax,%rbx
  406351:	48 8d 85 00 fe ff ff 	lea    -0x200(%rbp),%rax
  406358:	48 89 c7             	mov    %rax,%rdi
  40635b:	e8 d0 d4 ff ff       	callq  403830 <_ZNSt7__cxx1112basic_stringIcSt11char_traitsIcESaIcEED1Ev@plt>
  406360:	eb 03                	jmp    406365 <_ZN6jsonxx12_GLOBAL__N_14json3tagEjjRKNSt7__cxx1112basic_stringIcSt11char_traitsIcESaIcEEERKNS_5ValueE+0x87c>
  406362:	48 89 c3             	mov    %rax,%rbx
  406365:	48 8d 85 e0 fd ff ff 	lea    -0x220(%rbp),%rax
  40636c:	48 89 c7             	mov    %rax,%rdi
  40636f:	e8 bc d4 ff ff       	callq  403830 <_ZNSt7__cxx1112basic_stringIcSt11char_traitsIcESaIcEED1Ev@plt>
  406374:	eb 17                	jmp    40638d <_ZN6jsonxx12_GLOBAL__N_14json3tagEjjRKNSt7__cxx1112basic_stringIcSt11char_traitsIcESaIcEEERKNS_5ValueE+0x8a4>
  406376:	48 89 c3             	mov    %rax,%rbx
  406379:	48 8d 85 40 fe ff ff 	lea    -0x1c0(%rbp),%rax
  406380:	48 89 c7             	mov    %rax,%rdi
  406383:	e8 a8 d4 ff ff       	callq  403830 <_ZNSt7__cxx1112basic_stringIcSt11char_traitsIcESaIcEED1Ev@plt>
  406388:	eb 03                	jmp    40638d <_ZN6jsonxx12_GLOBAL__N_14json3tagEjjRKNSt7__cxx1112basic_stringIcSt11char_traitsIcESaIcEEERKNS_5ValueE+0x8a4>
  40638a:	48 89 c3             	mov    %rax,%rbx
  40638d:	48 8d 85 80 fc ff ff 	lea    -0x380(%rbp),%rax
  406394:	48 89 c7             	mov    %rax,%rdi
  406397:	e8 94 d4 ff ff       	callq  403830 <_ZNSt7__cxx1112basic_stringIcSt11char_traitsIcESaIcEED1Ev@plt>
  40639c:	48 8d 85 60 fe ff ff 	lea    -0x1a0(%rbp),%rax
  4063a3:	48 89 c7             	mov    %rax,%rdi
  4063a6:	e8 85 d2 ff ff       	callq  403630 <_ZNSt7__cxx1118basic_stringstreamIcSt11char_traitsIcESaIcEED1Ev@plt>
  4063ab:	48 89 d8             	mov    %rbx,%rax
  4063ae:	48 89 c7             	mov    %rax,%rdi
  4063b1:	e8 0a d4 ff ff       	callq  4037c0 <_Unwind_Resume@plt>
  4063b6:	e8 e5 d1 ff ff       	callq  4035a0 <__stack_chk_fail@plt>
  4063bb:	48 8b 5d f8          	mov    -0x8(%rbp),%rbx
  4063bf:	c9                   	leaveq 
  4063c0:	c3                   	retq   

00000000004063c1 <__tcf_1>:
  4063c1:	55                   	push   %rbp
  4063c2:	48 89 e5             	mov    %rsp,%rbp
  4063c5:	53                   	push   %rbx
  4063c6:	48 83 ec 18          	sub    $0x18,%rsp
  4063ca:	48 89 7d e8          	mov    %rdi,-0x18(%rbp)
  4063ce:	bb 80 d7 62 00       	mov    $0x62d780,%ebx
  4063d3:	48 81 fb 80 b7 62 00 	cmp    $0x62b780,%rbx
  4063da:	74 0e                	je     4063ea <__tcf_1+0x29>
  4063dc:	48 83 eb 20          	sub    $0x20,%rbx
  4063e0:	48 89 df             	mov    %rbx,%rdi
  4063e3:	e8 48 d4 ff ff       	callq  403830 <_ZNSt7__cxx1112basic_stringIcSt11char_traitsIcESaIcEED1Ev@plt>
  4063e8:	eb e9                	jmp    4063d3 <__tcf_1+0x12>
  4063ea:	48 83 c4 18          	add    $0x18,%rsp
  4063ee:	5b                   	pop    %rbx
  4063ef:	5d                   	pop    %rbp
  4063f0:	c3                   	retq   

00000000004063f1 <_ZN6jsonxx12_GLOBAL__N_13xml13escape_attribERKNSt7__cxx1112basic_stringIcSt11char_traitsIcESaIcEEE>:
  4063f1:	55                   	push   %rbp
  4063f2:	48 89 e5             	mov    %rsp,%rbp
  4063f5:	41 54                	push   %r12
  4063f7:	53                   	push   %rbx
  4063f8:	48 81 ec 90 00 00 00 	sub    $0x90,%rsp
  4063ff:	48 89 bd 68 ff ff ff 	mov    %rdi,-0x98(%rbp)
  406406:	48 89 b5 60 ff ff ff 	mov    %rsi,-0xa0(%rbp)
  40640d:	64 48 8b 04 25 28 00 	mov    %fs:0x28,%rax
  406414:	00 00 
  406416:	48 89 45 e8          	mov    %rax,-0x18(%rbp)
  40641a:	31 c0                	xor    %eax,%eax
  40641c:	b8 60 b7 62 00       	mov    $0x62b760,%eax
  406421:	0f b6 00             	movzbl (%rax),%eax
  406424:	84 c0                	test   %al,%al
  406426:	75 56                	jne    40647e <_ZN6jsonxx12_GLOBAL__N_13xml13escape_attribERKNSt7__cxx1112basic_stringIcSt11char_traitsIcESaIcEEE+0x8d>
  406428:	bf 60 b7 62 00       	mov    $0x62b760,%edi
  40642d:	e8 ce d1 ff ff       	callq  403600 <__cxa_guard_acquire@plt>
  406432:	85 c0                	test   %eax,%eax
  406434:	0f 95 c0             	setne  %al
  406437:	84 c0                	test   %al,%al
  406439:	74 43                	je     40647e <_ZN6jsonxx12_GLOBAL__N_13xml13escape_attribERKNSt7__cxx1112basic_stringIcSt11char_traitsIcESaIcEEE+0x8d>
  40643b:	b8 80 b7 62 00       	mov    $0x62b780,%eax
  406440:	bb ff 00 00 00       	mov    $0xff,%ebx
  406445:	49 89 c4             	mov    %rax,%r12
  406448:	48 83 fb ff          	cmp    $0xffffffffffffffff,%rbx
  40644c:	74 12                	je     406460 <_ZN6jsonxx12_GLOBAL__N_13xml13escape_attribERKNSt7__cxx1112basic_stringIcSt11char_traitsIcESaIcEEE+0x6f>
  40644e:	4c 89 e7             	mov    %r12,%rdi
  406451:	e8 9a d1 ff ff       	callq  4035f0 <_ZNSt7__cxx1112basic_stringIcSt11char_traitsIcESaIcEEC1Ev@plt>
  406456:	49 83 c4 20          	add    $0x20,%r12
  40645a:	48 83 eb 01          	sub    $0x1,%rbx
  40645e:	eb e8                	jmp    406448 <_ZN6jsonxx12_GLOBAL__N_13xml13escape_attribERKNSt7__cxx1112basic_stringIcSt11char_traitsIcESaIcEEE+0x57>
  406460:	bf 60 b7 62 00       	mov    $0x62b760,%edi
  406465:	e8 f6 d2 ff ff       	callq  403760 <__cxa_guard_release@plt>
  40646a:	ba e8 93 62 00       	mov    $0x6293e8,%edx
  40646f:	be 00 00 00 00       	mov    $0x0,%esi
  406474:	bf c1 63 40 00       	mov    $0x4063c1,%edi
  406479:	e8 52 d4 ff ff       	callq  4038d0 <__cxa_atexit@plt>
  40647e:	48 8b 05 23 93 22 00 	mov    0x229323(%rip),%rax        # 62f7a8 <_ZZN6jsonxx12_GLOBAL__N_13xml13escape_attribERKNSt7__cxx1112basic_stringIcSt11char_traitsIcESaIcEEEE4once>
  406485:	48 85 c0             	test   %rax,%rax
  406488:	0f 85 c9 01 00 00    	jne    406657 <_ZN6jsonxx12_GLOBAL__N_13xml13escape_attribERKNSt7__cxx1112basic_stringIcSt11char_traitsIcESaIcEEE+0x266>
  40648e:	c7 85 70 ff ff ff 00 	movl   $0x0,-0x90(%rbp)
  406495:	00 00 00 
  406498:	81 bd 70 ff ff ff ff 	cmpl   $0xff,-0x90(%rbp)
  40649f:	00 00 00 
  4064a2:	7f 28                	jg     4064cc <_ZN6jsonxx12_GLOBAL__N_13xml13escape_attribERKNSt7__cxx1112basic_stringIcSt11char_traitsIcESaIcEEE+0xdb>
  4064a4:	8b 85 70 ff ff ff    	mov    -0x90(%rbp),%eax
  4064aa:	48 98                	cltq   
  4064ac:	48 c1 e0 05          	shl    $0x5,%rax
  4064b0:	48 05 80 b7 62 00    	add    $0x62b780,%rax
  4064b6:	be 48 ca 41 00       	mov    $0x41ca48,%esi
  4064bb:	48 89 c7             	mov    %rax,%rdi
  4064be:	e8 ad d1 ff ff       	callq  403670 <_ZNSt7__cxx1112basic_stringIcSt11char_traitsIcESaIcEEaSEPKc@plt>
  4064c3:	83 85 70 ff ff ff 01 	addl   $0x1,-0x90(%rbp)
  4064ca:	eb cc                	jmp    406498 <_ZN6jsonxx12_GLOBAL__N_13xml13escape_attribERKNSt7__cxx1112basic_stringIcSt11char_traitsIcESaIcEEE+0xa7>
  4064cc:	c7 85 74 ff ff ff 61 	movl   $0x61,-0x8c(%rbp)
  4064d3:	00 00 00 
  4064d6:	83 bd 74 ff ff ff 7a 	cmpl   $0x7a,-0x8c(%rbp)
  4064dd:	7f 6d                	jg     40654c <_ZN6jsonxx12_GLOBAL__N_13xml13escape_attribERKNSt7__cxx1112basic_stringIcSt11char_traitsIcESaIcEEE+0x15b>
  4064df:	8b 85 74 ff ff ff    	mov    -0x8c(%rbp),%eax
  4064e5:	0f be d8             	movsbl %al,%ebx
  4064e8:	48 8d 45 a0          	lea    -0x60(%rbp),%rax
  4064ec:	48 89 c7             	mov    %rax,%rdi
  4064ef:	e8 fc d0 ff ff       	callq  4035f0 <_ZNSt7__cxx1112basic_stringIcSt11char_traitsIcESaIcEEC1Ev@plt>
  4064f4:	48 8d 45 c0          	lea    -0x40(%rbp),%rax
  4064f8:	48 8d 4d a0          	lea    -0x60(%rbp),%rcx
  4064fc:	89 da                	mov    %ebx,%edx
  4064fe:	48 89 ce             	mov    %rcx,%rsi
  406501:	48 89 c7             	mov    %rax,%rdi
  406504:	e8 32 af 00 00       	callq  41143b <_ZStplIcSt11char_traitsIcESaIcEENSt7__cxx1112basic_stringIT_T0_T1_EEOS8_S5_>
  406509:	8b 85 74 ff ff ff    	mov    -0x8c(%rbp),%eax
  40650f:	48 98                	cltq   
  406511:	48 c1 e0 05          	shl    $0x5,%rax
  406515:	48 8d 90 80 b7 62 00 	lea    0x62b780(%rax),%rdx
  40651c:	48 8d 45 c0          	lea    -0x40(%rbp),%rax
  406520:	48 89 c6             	mov    %rax,%rsi
  406523:	48 89 d7             	mov    %rdx,%rdi
  406526:	e8 d5 d1 ff ff       	callq  403700 <_ZNSt7__cxx1112basic_stringIcSt11char_traitsIcESaIcEEaSEOS4_@plt>
  40652b:	48 8d 45 c0          	lea    -0x40(%rbp),%rax
  40652f:	48 89 c7             	mov    %rax,%rdi
  406532:	e8 f9 d2 ff ff       	callq  403830 <_ZNSt7__cxx1112basic_stringIcSt11char_traitsIcESaIcEED1Ev@plt>
  406537:	48 8d 45 a0          	lea    -0x60(%rbp),%rax
  40653b:	48 89 c7             	mov    %rax,%rdi
  40653e:	e8 ed d2 ff ff       	callq  403830 <_ZNSt7__cxx1112basic_stringIcSt11char_traitsIcESaIcEED1Ev@plt>
  406543:	83 85 74 ff ff ff 01 	addl   $0x1,-0x8c(%rbp)
  40654a:	eb 8a                	jmp    4064d6 <_ZN6jsonxx12_GLOBAL__N_13xml13escape_attribERKNSt7__cxx1112basic_stringIcSt11char_traitsIcESaIcEEE+0xe5>
  40654c:	c7 85 78 ff ff ff 41 	movl   $0x41,-0x88(%rbp)
  406553:	00 00 00 
  406556:	83 bd 78 ff ff ff 5a 	cmpl   $0x5a,-0x88(%rbp)
  40655d:	7f 6d                	jg     4065cc <_ZN6jsonxx12_GLOBAL__N_13xml13escape_attribERKNSt7__cxx1112basic_stringIcSt11char_traitsIcESaIcEEE+0x1db>
  40655f:	8b 85 78 ff ff ff    	mov    -0x88(%rbp),%eax
  406565:	0f be d8             	movsbl %al,%ebx
  406568:	48 8d 45 a0          	lea    -0x60(%rbp),%rax
  40656c:	48 89 c7             	mov    %rax,%rdi
  40656f:	e8 7c d0 ff ff       	callq  4035f0 <_ZNSt7__cxx1112basic_stringIcSt11char_traitsIcESaIcEEC1Ev@plt>
  406574:	48 8d 45 c0          	lea    -0x40(%rbp),%rax
  406578:	48 8d 4d a0          	lea    -0x60(%rbp),%rcx
  40657c:	89 da                	mov    %ebx,%edx
  40657e:	48 89 ce             	mov    %rcx,%rsi
  406581:	48 89 c7             	mov    %rax,%rdi
  406584:	e8 b2 ae 00 00       	callq  41143b <_ZStplIcSt11char_traitsIcESaIcEENSt7__cxx1112basic_stringIT_T0_T1_EEOS8_S5_>
  406589:	8b 85 78 ff ff ff    	mov    -0x88(%rbp),%eax
  40658f:	48 98                	cltq   
  406591:	48 c1 e0 05          	shl    $0x5,%rax
  406595:	48 8d 90 80 b7 62 00 	lea    0x62b780(%rax),%rdx
  40659c:	48 8d 45 c0          	lea    -0x40(%rbp),%rax
  4065a0:	48 89 c6             	mov    %rax,%rsi
  4065a3:	48 89 d7             	mov    %rdx,%rdi
  4065a6:	e8 55 d1 ff ff       	callq  403700 <_ZNSt7__cxx1112basic_stringIcSt11char_traitsIcESaIcEEaSEOS4_@plt>
  4065ab:	48 8d 45 c0          	lea    -0x40(%rbp),%rax
  4065af:	48 89 c7             	mov    %rax,%rdi
  4065b2:	e8 79 d2 ff ff       	callq  403830 <_ZNSt7__cxx1112basic_stringIcSt11char_traitsIcESaIcEED1Ev@plt>
  4065b7:	48 8d 45 a0          	lea    -0x60(%rbp),%rax
  4065bb:	48 89 c7             	mov    %rax,%rdi
  4065be:	e8 6d d2 ff ff       	callq  403830 <_ZNSt7__cxx1112basic_stringIcSt11char_traitsIcESaIcEED1Ev@plt>
  4065c3:	83 85 78 ff ff ff 01 	addl   $0x1,-0x88(%rbp)
  4065ca:	eb 8a                	jmp    406556 <_ZN6jsonxx12_GLOBAL__N_13xml13escape_attribERKNSt7__cxx1112basic_stringIcSt11char_traitsIcESaIcEEE+0x165>
  4065cc:	c7 85 7c ff ff ff 30 	movl   $0x30,-0x84(%rbp)
  4065d3:	00 00 00 
  4065d6:	83 bd 7c ff ff ff 39 	cmpl   $0x39,-0x84(%rbp)
  4065dd:	7f 6d                	jg     40664c <_ZN6jsonxx12_GLOBAL__N_13xml13escape_attribERKNSt7__cxx1112basic_stringIcSt11char_traitsIcESaIcEEE+0x25b>
  4065df:	8b 85 7c ff ff ff    	mov    -0x84(%rbp),%eax
  4065e5:	0f be d8             	movsbl %al,%ebx
  4065e8:	48 8d 45 a0          	lea    -0x60(%rbp),%rax
  4065ec:	48 89 c7             	mov    %rax,%rdi
  4065ef:	e8 fc cf ff ff       	callq  4035f0 <_ZNSt7__cxx1112basic_stringIcSt11char_traitsIcESaIcEEC1Ev@plt>
  4065f4:	48 8d 45 c0          	lea    -0x40(%rbp),%rax
  4065f8:	48 8d 4d a0          	lea    -0x60(%rbp),%rcx
  4065fc:	89 da                	mov    %ebx,%edx
  4065fe:	48 89 ce             	mov    %rcx,%rsi
  406601:	48 89 c7             	mov    %rax,%rdi
  406604:	e8 32 ae 00 00       	callq  41143b <_ZStplIcSt11char_traitsIcESaIcEENSt7__cxx1112basic_stringIT_T0_T1_EEOS8_S5_>
  406609:	8b 85 7c ff ff ff    	mov    -0x84(%rbp),%eax
  40660f:	48 98                	cltq   
  406611:	48 c1 e0 05          	shl    $0x5,%rax
  406615:	48 8d 90 80 b7 62 00 	lea    0x62b780(%rax),%rdx
  40661c:	48 8d 45 c0          	lea    -0x40(%rbp),%rax
  406620:	48 89 c6             	mov    %rax,%rsi
  406623:	48 89 d7             	mov    %rdx,%rdi
  406626:	e8 d5 d0 ff ff       	callq  403700 <_ZNSt7__cxx1112basic_stringIcSt11char_traitsIcESaIcEEaSEOS4_@plt>
  40662b:	48 8d 45 c0          	lea    -0x40(%rbp),%rax
  40662f:	48 89 c7             	mov    %rax,%rdi
  406632:	e8 f9 d1 ff ff       	callq  403830 <_ZNSt7__cxx1112basic_stringIcSt11char_traitsIcESaIcEED1Ev@plt>
  406637:	48 8d 45 a0          	lea    -0x60(%rbp),%rax
  40663b:	48 89 c7             	mov    %rax,%rdi
  40663e:	e8 ed d1 ff ff       	callq  403830 <_ZNSt7__cxx1112basic_stringIcSt11char_traitsIcESaIcEED1Ev@plt>
  406643:	83 85 7c ff ff ff 01 	addl   $0x1,-0x84(%rbp)
  40664a:	eb 8a                	jmp    4065d6 <_ZN6jsonxx12_GLOBAL__N_13xml13escape_attribERKNSt7__cxx1112basic_stringIcSt11char_traitsIcESaIcEEE+0x1e5>
  40664c:	48 c7 05 51 91 22 00 	movq   $0x62b780,0x229151(%rip)        # 62f7a8 <_ZZN6jsonxx12_GLOBAL__N_13xml13escape_attribERKNSt7__cxx1112basic_stringIcSt11char_traitsIcESaIcEEEE4once>
  406653:	80 b7 62 00 
  406657:	48 8b 85 68 ff ff ff 	mov    -0x98(%rbp),%rax
  40665e:	48 89 c7             	mov    %rax,%rdi
  406661:	e8 8a cf ff ff       	callq  4035f0 <_ZNSt7__cxx1112basic_stringIcSt11char_traitsIcESaIcEEC1Ev@plt>
  406666:	48 8b 85 60 ff ff ff 	mov    -0xa0(%rbp),%rax
  40666d:	48 89 c7             	mov    %rax,%rdi
  406670:	e8 1b cf ff ff       	callq  403590 <_ZNKSt7__cxx1112basic_stringIcSt11char_traitsIcESaIcEE4sizeEv@plt>
  406675:	48 89 c2             	mov    %rax,%rdx
  406678:	48 8b 85 68 ff ff ff 	mov    -0x98(%rbp),%rax
  40667f:	48 89 d6             	mov    %rdx,%rsi
  406682:	48 89 c7             	mov    %rax,%rdi
  406685:	e8 06 d2 ff ff       	callq  403890 <_ZNSt7__cxx1112basic_stringIcSt11char_traitsIcESaIcEE7reserveEm@plt>
  40668a:	48 8b 85 60 ff ff ff 	mov    -0xa0(%rbp),%rax
  406691:	48 89 c7             	mov    %rax,%rdi
  406694:	e8 b7 ce ff ff       	callq  403550 <_ZNKSt7__cxx1112basic_stringIcSt11char_traitsIcESaIcEE5beginEv@plt>
  406699:	48 89 45 80          	mov    %rax,-0x80(%rbp)
  40669d:	48 8b 85 60 ff ff ff 	mov    -0xa0(%rbp),%rax
  4066a4:	48 89 c7             	mov    %rax,%rdi
  4066a7:	e8 84 d3 ff ff       	callq  403a30 <_ZNKSt7__cxx1112basic_stringIcSt11char_traitsIcESaIcEE3endEv@plt>
  4066ac:	48 89 45 90          	mov    %rax,-0x70(%rbp)
  4066b0:	48 8d 55 90          	lea    -0x70(%rbp),%rdx
  4066b4:	48 8d 45 80          	lea    -0x80(%rbp),%rax
  4066b8:	48 89 d6             	mov    %rdx,%rsi
  4066bb:	48 89 c7             	mov    %rax,%rdi
  4066be:	e8 47 ab 00 00       	callq  41120a <_ZN9__gnu_cxxneIPKcNSt7__cxx1112basic_stringIcSt11char_traitsIcESaIcEEEEEbRKNS_17__normal_iteratorIT_T0_EESE_>
  4066c3:	84 c0                	test   %al,%al
  4066c5:	0f 84 dd 00 00 00    	je     4067a8 <_ZN6jsonxx12_GLOBAL__N_13xml13escape_attribERKNSt7__cxx1112basic_stringIcSt11char_traitsIcESaIcEEE+0x3b7>
  4066cb:	48 8d 45 80          	lea    -0x80(%rbp),%rax
  4066cf:	48 89 c7             	mov    %rax,%rdi
  4066d2:	e8 8f ab 00 00       	callq  411266 <_ZNK9__gnu_cxx17__normal_iteratorIPKcNSt7__cxx1112basic_stringIcSt11char_traitsIcESaIcEEEEdeEv>
  4066d7:	0f b6 00             	movzbl (%rax),%eax
  4066da:	0f b6 c0             	movzbl %al,%eax
  4066dd:	48 98                	cltq   
  4066df:	48 c1 e0 05          	shl    $0x5,%rax
  4066e3:	48 8d 90 80 b7 62 00 	lea    0x62b780(%rax),%rdx
  4066ea:	48 8b 85 68 ff ff ff 	mov    -0x98(%rbp),%rax
  4066f1:	48 89 d6             	mov    %rdx,%rsi
  4066f4:	48 89 c7             	mov    %rax,%rdi
  4066f7:	e8 14 cd ff ff       	callq  403410 <_ZNSt7__cxx1112basic_stringIcSt11char_traitsIcESaIcEEpLERKS4_@plt>
  4066fc:	48 8d 45 80          	lea    -0x80(%rbp),%rax
  406700:	48 89 c7             	mov    %rax,%rdi
  406703:	e8 3e ab 00 00       	callq  411246 <_ZN9__gnu_cxx17__normal_iteratorIPKcNSt7__cxx1112basic_stringIcSt11char_traitsIcESaIcEEEEppEv>
  406708:	eb a6                	jmp    4066b0 <_ZN6jsonxx12_GLOBAL__N_13xml13escape_attribERKNSt7__cxx1112basic_stringIcSt11char_traitsIcESaIcEEE+0x2bf>
  40670a:	48 89 c3             	mov    %rax,%rbx
  40670d:	48 8d 45 c0          	lea    -0x40(%rbp),%rax
  406711:	48 89 c7             	mov    %rax,%rdi
  406714:	e8 17 d1 ff ff       	callq  403830 <_ZNSt7__cxx1112basic_stringIcSt11char_traitsIcESaIcEED1Ev@plt>
  406719:	eb 03                	jmp    40671e <_ZN6jsonxx12_GLOBAL__N_13xml13escape_attribERKNSt7__cxx1112basic_stringIcSt11char_traitsIcESaIcEEE+0x32d>
  40671b:	48 89 c3             	mov    %rax,%rbx
  40671e:	48 8d 45 a0          	lea    -0x60(%rbp),%rax
  406722:	48 89 c7             	mov    %rax,%rdi
  406725:	e8 06 d1 ff ff       	callq  403830 <_ZNSt7__cxx1112basic_stringIcSt11char_traitsIcESaIcEED1Ev@plt>
  40672a:	48 89 d8             	mov    %rbx,%rax
  40672d:	48 89 c7             	mov    %rax,%rdi
  406730:	e8 8b d0 ff ff       	callq  4037c0 <_Unwind_Resume@plt>
  406735:	48 89 c3             	mov    %rax,%rbx
  406738:	48 8d 45 c0          	lea    -0x40(%rbp),%rax
  40673c:	48 89 c7             	mov    %rax,%rdi
  40673f:	e8 ec d0 ff ff       	callq  403830 <_ZNSt7__cxx1112basic_stringIcSt11char_traitsIcESaIcEED1Ev@plt>
  406744:	eb 03                	jmp    406749 <_ZN6jsonxx12_GLOBAL__N_13xml13escape_attribERKNSt7__cxx1112basic_stringIcSt11char_traitsIcESaIcEEE+0x358>
  406746:	48 89 c3             	mov    %rax,%rbx
  406749:	48 8d 45 a0          	lea    -0x60(%rbp),%rax
  40674d:	48 89 c7             	mov    %rax,%rdi
  406750:	e8 db d0 ff ff       	callq  403830 <_ZNSt7__cxx1112basic_stringIcSt11char_traitsIcESaIcEED1Ev@plt>
  406755:	48 89 d8             	mov    %rbx,%rax
  406758:	48 89 c7             	mov    %rax,%rdi
  40675b:	e8 60 d0 ff ff       	callq  4037c0 <_Unwind_Resume@plt>
  406760:	48 89 c3             	mov    %rax,%rbx
  406763:	48 8d 45 c0          	lea    -0x40(%rbp),%rax
  406767:	48 89 c7             	mov    %rax,%rdi
  40676a:	e8 c1 d0 ff ff       	callq  403830 <_ZNSt7__cxx1112basic_stringIcSt11char_traitsIcESaIcEED1Ev@plt>
  40676f:	eb 03                	jmp    406774 <_ZN6jsonxx12_GLOBAL__N_13xml13escape_attribERKNSt7__cxx1112basic_stringIcSt11char_traitsIcESaIcEEE+0x383>
  406771:	48 89 c3             	mov    %rax,%rbx
  406774:	48 8d 45 a0          	lea    -0x60(%rbp),%rax
  406778:	48 89 c7             	mov    %rax,%rdi
  40677b:	e8 b0 d0 ff ff       	callq  403830 <_ZNSt7__cxx1112basic_stringIcSt11char_traitsIcESaIcEED1Ev@plt>
  406780:	48 89 d8             	mov    %rbx,%rax
  406783:	48 89 c7             	mov    %rax,%rdi
  406786:	e8 35 d0 ff ff       	callq  4037c0 <_Unwind_Resume@plt>
  40678b:	48 89 c3             	mov    %rax,%rbx
  40678e:	48 8b 85 68 ff ff ff 	mov    -0x98(%rbp),%rax
  406795:	48 89 c7             	mov    %rax,%rdi
  406798:	e8 93 d0 ff ff       	callq  403830 <_ZNSt7__cxx1112basic_stringIcSt11char_traitsIcESaIcEED1Ev@plt>
  40679d:	48 89 d8             	mov    %rbx,%rax
  4067a0:	48 89 c7             	mov    %rax,%rdi
  4067a3:	e8 18 d0 ff ff       	callq  4037c0 <_Unwind_Resume@plt>
  4067a8:	90                   	nop
  4067a9:	48 8b 85 68 ff ff ff 	mov    -0x98(%rbp),%rax
  4067b0:	48 8b 4d e8          	mov    -0x18(%rbp),%rcx
  4067b4:	64 48 33 0c 25 28 00 	xor    %fs:0x28,%rcx
  4067bb:	00 00 
  4067bd:	74 05                	je     4067c4 <_ZN6jsonxx12_GLOBAL__N_13xml13escape_attribERKNSt7__cxx1112basic_stringIcSt11char_traitsIcESaIcEEE+0x3d3>
  4067bf:	e8 dc cd ff ff       	callq  4035a0 <__stack_chk_fail@plt>
  4067c4:	48 81 c4 90 00 00 00 	add    $0x90,%rsp
  4067cb:	5b                   	pop    %rbx
  4067cc:	41 5c                	pop    %r12
  4067ce:	5d                   	pop    %rbp
  4067cf:	c3                   	retq   

00000000004067d0 <__tcf_2>:
  4067d0:	55                   	push   %rbp
  4067d1:	48 89 e5             	mov    %rsp,%rbp
  4067d4:	53                   	push   %rbx
  4067d5:	48 83 ec 18          	sub    $0x18,%rsp
  4067d9:	48 89 7d e8          	mov    %rdi,-0x18(%rbp)
  4067dd:	bb a0 f7 62 00       	mov    $0x62f7a0,%ebx
  4067e2:	48 81 fb a0 d7 62 00 	cmp    $0x62d7a0,%rbx
  4067e9:	74 0e                	je     4067f9 <__tcf_2+0x29>
  4067eb:	48 83 eb 20          	sub    $0x20,%rbx
  4067ef:	48 89 df             	mov    %rbx,%rdi
  4067f2:	e8 39 d0 ff ff       	callq  403830 <_ZNSt7__cxx1112basic_stringIcSt11char_traitsIcESaIcEED1Ev@plt>
  4067f7:	eb e9                	jmp    4067e2 <__tcf_2+0x12>
  4067f9:	48 83 c4 18          	add    $0x18,%rsp
  4067fd:	5b                   	pop    %rbx
  4067fe:	5d                   	pop    %rbp
  4067ff:	c3                   	retq   

0000000000406800 <_ZN6jsonxx12_GLOBAL__N_13xml10escape_tagERKNSt7__cxx1112basic_stringIcSt11char_traitsIcESaIcEEEj>:
  406800:	55                   	push   %rbp
  406801:	48 89 e5             	mov    %rsp,%rbp
  406804:	41 54                	push   %r12
  406806:	53                   	push   %rbx
  406807:	48 81 ec a0 00 00 00 	sub    $0xa0,%rsp
  40680e:	48 89 bd 68 ff ff ff 	mov    %rdi,-0x98(%rbp)
  406815:	48 89 b5 60 ff ff ff 	mov    %rsi,-0xa0(%rbp)
  40681c:	89 95 5c ff ff ff    	mov    %edx,-0xa4(%rbp)
  406822:	64 48 8b 04 25 28 00 	mov    %fs:0x28,%rax
  406829:	00 00 
  40682b:	48 89 45 e8          	mov    %rax,-0x18(%rbp)
  40682f:	31 c0                	xor    %eax,%eax
  406831:	b8 80 d7 62 00       	mov    $0x62d780,%eax
  406836:	0f b6 00             	movzbl (%rax),%eax
  406839:	84 c0                	test   %al,%al
  40683b:	75 56                	jne    406893 <_ZN6jsonxx12_GLOBAL__N_13xml10escape_tagERKNSt7__cxx1112basic_stringIcSt11char_traitsIcESaIcEEEj+0x93>
  40683d:	bf 80 d7 62 00       	mov    $0x62d780,%edi
  406842:	e8 b9 cd ff ff       	callq  403600 <__cxa_guard_acquire@plt>
  406847:	85 c0                	test   %eax,%eax
  406849:	0f 95 c0             	setne  %al
  40684c:	84 c0                	test   %al,%al
  40684e:	74 43                	je     406893 <_ZN6jsonxx12_GLOBAL__N_13xml10escape_tagERKNSt7__cxx1112basic_stringIcSt11char_traitsIcESaIcEEEj+0x93>
  406850:	b8 a0 d7 62 00       	mov    $0x62d7a0,%eax
  406855:	bb ff 00 00 00       	mov    $0xff,%ebx
  40685a:	49 89 c4             	mov    %rax,%r12
  40685d:	48 83 fb ff          	cmp    $0xffffffffffffffff,%rbx
  406861:	74 12                	je     406875 <_ZN6jsonxx12_GLOBAL__N_13xml10escape_tagERKNSt7__cxx1112basic_stringIcSt11char_traitsIcESaIcEEEj+0x75>
  406863:	4c 89 e7             	mov    %r12,%rdi
  406866:	e8 85 cd ff ff       	callq  4035f0 <_ZNSt7__cxx1112basic_stringIcSt11char_traitsIcESaIcEEC1Ev@plt>
  40686b:	49 83 c4 20          	add    $0x20,%r12
  40686f:	48 83 eb 01          	sub    $0x1,%rbx
  406873:	eb e8                	jmp    40685d <_ZN6jsonxx12_GLOBAL__N_13xml10escape_tagERKNSt7__cxx1112basic_stringIcSt11char_traitsIcESaIcEEEj+0x5d>
  406875:	bf 80 d7 62 00       	mov    $0x62d780,%edi
  40687a:	e8 e1 ce ff ff       	callq  403760 <__cxa_guard_release@plt>
  40687f:	ba e8 93 62 00       	mov    $0x6293e8,%edx
  406884:	be 00 00 00 00       	mov    $0x0,%esi
  406889:	bf d0 67 40 00       	mov    $0x4067d0,%edi
  40688e:	e8 3d d0 ff ff       	callq  4038d0 <__cxa_atexit@plt>
  406893:	48 8b 05 16 8f 22 00 	mov    0x228f16(%rip),%rax        # 62f7b0 <_ZZN6jsonxx12_GLOBAL__N_13xml10escape_tagERKNSt7__cxx1112basic_stringIcSt11char_traitsIcESaIcEEEjE4once>
  40689a:	48 85 c0             	test   %rax,%rax
  40689d:	0f 85 cc 00 00 00    	jne    40696f <_ZN6jsonxx12_GLOBAL__N_13xml10escape_tagERKNSt7__cxx1112basic_stringIcSt11char_traitsIcESaIcEEEj+0x16f>
  4068a3:	c7 85 7c ff ff ff 00 	movl   $0x0,-0x84(%rbp)
  4068aa:	00 00 00 
  4068ad:	81 bd 7c ff ff ff ff 	cmpl   $0xff,-0x84(%rbp)
  4068b4:	00 00 00 
  4068b7:	7f 6d                	jg     406926 <_ZN6jsonxx12_GLOBAL__N_13xml10escape_tagERKNSt7__cxx1112basic_stringIcSt11char_traitsIcESaIcEEEj+0x126>
  4068b9:	8b 85 7c ff ff ff    	mov    -0x84(%rbp),%eax
  4068bf:	0f be d8             	movsbl %al,%ebx
  4068c2:	48 8d 45 a0          	lea    -0x60(%rbp),%rax
  4068c6:	48 89 c7             	mov    %rax,%rdi
  4068c9:	e8 22 cd ff ff       	callq  4035f0 <_ZNSt7__cxx1112basic_stringIcSt11char_traitsIcESaIcEEC1Ev@plt>
  4068ce:	48 8d 45 c0          	lea    -0x40(%rbp),%rax
  4068d2:	48 8d 4d a0          	lea    -0x60(%rbp),%rcx
  4068d6:	89 da                	mov    %ebx,%edx
  4068d8:	48 89 ce             	mov    %rcx,%rsi
  4068db:	48 89 c7             	mov    %rax,%rdi
  4068de:	e8 58 ab 00 00       	callq  41143b <_ZStplIcSt11char_traitsIcESaIcEENSt7__cxx1112basic_stringIT_T0_T1_EEOS8_S5_>
  4068e3:	8b 85 7c ff ff ff    	mov    -0x84(%rbp),%eax
  4068e9:	48 98                	cltq   
  4068eb:	48 c1 e0 05          	shl    $0x5,%rax
  4068ef:	48 8d 90 a0 d7 62 00 	lea    0x62d7a0(%rax),%rdx
  4068f6:	48 8d 45 c0          	lea    -0x40(%rbp),%rax
  4068fa:	48 89 c6             	mov    %rax,%rsi
  4068fd:	48 89 d7             	mov    %rdx,%rdi
  406900:	e8 fb cd ff ff       	callq  403700 <_ZNSt7__cxx1112basic_stringIcSt11char_traitsIcESaIcEEaSEOS4_@plt>
  406905:	48 8d 45 c0          	lea    -0x40(%rbp),%rax
  406909:	48 89 c7             	mov    %rax,%rdi
  40690c:	e8 1f cf ff ff       	callq  403830 <_ZNSt7__cxx1112basic_stringIcSt11char_traitsIcESaIcEED1Ev@plt>
  406911:	48 8d 45 a0          	lea    -0x60(%rbp),%rax
  406915:	48 89 c7             	mov    %rax,%rdi
  406918:	e8 13 cf ff ff       	callq  403830 <_ZNSt7__cxx1112basic_stringIcSt11char_traitsIcESaIcEED1Ev@plt>
  40691d:	83 85 7c ff ff ff 01 	addl   $0x1,-0x84(%rbp)
  406924:	eb 87                	jmp    4068ad <_ZN6jsonxx12_GLOBAL__N_13xml10escape_tagERKNSt7__cxx1112basic_stringIcSt11char_traitsIcESaIcEEEj+0xad>
  406926:	be 4a ca 41 00       	mov    $0x41ca4a,%esi
  40692b:	bf 20 df 62 00       	mov    $0x62df20,%edi
  406930:	e8 3b cd ff ff       	callq  403670 <_ZNSt7__cxx1112basic_stringIcSt11char_traitsIcESaIcEEaSEPKc@plt>
  406935:	be 4f ca 41 00       	mov    $0x41ca4f,%esi
  40693a:	bf 60 df 62 00       	mov    $0x62df60,%edi
  40693f:	e8 2c cd ff ff       	callq  403670 <_ZNSt7__cxx1112basic_stringIcSt11char_traitsIcESaIcEEaSEPKc@plt>
  406944:	8b 85 5c ff ff ff    	mov    -0xa4(%rbp),%eax
  40694a:	83 e8 01             	sub    $0x1,%eax
  40694d:	83 f8 03             	cmp    $0x3,%eax
  406950:	77 11                	ja     406963 <_ZN6jsonxx12_GLOBAL__N_13xml10escape_tagERKNSt7__cxx1112basic_stringIcSt11char_traitsIcESaIcEEEj+0x163>
  406952:	be 54 ca 41 00       	mov    $0x41ca54,%esi
  406957:	bf 60 dc 62 00       	mov    $0x62dc60,%edi
  40695c:	e8 0f cd ff ff       	callq  403670 <_ZNSt7__cxx1112basic_stringIcSt11char_traitsIcESaIcEEaSEPKc@plt>
  406961:	eb 01                	jmp    406964 <_ZN6jsonxx12_GLOBAL__N_13xml10escape_tagERKNSt7__cxx1112basic_stringIcSt11char_traitsIcESaIcEEEj+0x164>
  406963:	90                   	nop
  406964:	48 c7 05 41 8e 22 00 	movq   $0x62d7a0,0x228e41(%rip)        # 62f7b0 <_ZZN6jsonxx12_GLOBAL__N_13xml10escape_tagERKNSt7__cxx1112basic_stringIcSt11char_traitsIcESaIcEEEjE4once>
  40696b:	a0 d7 62 00 
  40696f:	48 8b 85 68 ff ff ff 	mov    -0x98(%rbp),%rax
  406976:	48 89 c7             	mov    %rax,%rdi
  406979:	e8 72 cc ff ff       	callq  4035f0 <_ZNSt7__cxx1112basic_stringIcSt11char_traitsIcESaIcEEC1Ev@plt>
  40697e:	48 8b 85 60 ff ff ff 	mov    -0xa0(%rbp),%rax
  406985:	48 89 c7             	mov    %rax,%rdi
  406988:	e8 03 cc ff ff       	callq  403590 <_ZNKSt7__cxx1112basic_stringIcSt11char_traitsIcESaIcEE4sizeEv@plt>
  40698d:	48 89 c2             	mov    %rax,%rdx
  406990:	48 89 d0             	mov    %rdx,%rax
  406993:	48 c1 e0 02          	shl    $0x2,%rax
  406997:	48 01 c2             	add    %rax,%rdx
  40699a:	48 8b 85 68 ff ff ff 	mov    -0x98(%rbp),%rax
  4069a1:	48 89 d6             	mov    %rdx,%rsi
  4069a4:	48 89 c7             	mov    %rax,%rdi
  4069a7:	e8 e4 ce ff ff       	callq  403890 <_ZNSt7__cxx1112basic_stringIcSt11char_traitsIcESaIcEE7reserveEm@plt>
  4069ac:	48 8b 85 60 ff ff ff 	mov    -0xa0(%rbp),%rax
  4069b3:	48 89 c7             	mov    %rax,%rdi
  4069b6:	e8 95 cb ff ff       	callq  403550 <_ZNKSt7__cxx1112basic_stringIcSt11char_traitsIcESaIcEE5beginEv@plt>
  4069bb:	48 89 45 80          	mov    %rax,-0x80(%rbp)
  4069bf:	48 8b 85 60 ff ff ff 	mov    -0xa0(%rbp),%rax
  4069c6:	48 89 c7             	mov    %rax,%rdi
  4069c9:	e8 62 d0 ff ff       	callq  403a30 <_ZNKSt7__cxx1112basic_stringIcSt11char_traitsIcESaIcEE3endEv@plt>
  4069ce:	48 89 45 90          	mov    %rax,-0x70(%rbp)
  4069d2:	48 8d 55 90          	lea    -0x70(%rbp),%rdx
  4069d6:	48 8d 45 80          	lea    -0x80(%rbp),%rax
  4069da:	48 89 d6             	mov    %rdx,%rsi
  4069dd:	48 89 c7             	mov    %rax,%rdi
  4069e0:	e8 25 a8 00 00       	callq  41120a <_ZN9__gnu_cxxneIPKcNSt7__cxx1112basic_stringIcSt11char_traitsIcESaIcEEEEEbRKNS_17__normal_iteratorIT_T0_EESE_>
  4069e5:	84 c0                	test   %al,%al
  4069e7:	0f 84 87 00 00 00    	je     406a74 <_ZN6jsonxx12_GLOBAL__N_13xml10escape_tagERKNSt7__cxx1112basic_stringIcSt11char_traitsIcESaIcEEEj+0x274>
  4069ed:	48 8d 45 80          	lea    -0x80(%rbp),%rax
  4069f1:	48 89 c7             	mov    %rax,%rdi
  4069f4:	e8 6d a8 00 00       	callq  411266 <_ZNK9__gnu_cxx17__normal_iteratorIPKcNSt7__cxx1112basic_stringIcSt11char_traitsIcESaIcEEEEdeEv>
  4069f9:	0f b6 00             	movzbl (%rax),%eax
  4069fc:	0f b6 c0             	movzbl %al,%eax
  4069ff:	48 98                	cltq   
  406a01:	48 c1 e0 05          	shl    $0x5,%rax
  406a05:	48 8d 90 a0 d7 62 00 	lea    0x62d7a0(%rax),%rdx
  406a0c:	48 8b 85 68 ff ff ff 	mov    -0x98(%rbp),%rax
  406a13:	48 89 d6             	mov    %rdx,%rsi
  406a16:	48 89 c7             	mov    %rax,%rdi
  406a19:	e8 f2 c9 ff ff       	callq  403410 <_ZNSt7__cxx1112basic_stringIcSt11char_traitsIcESaIcEEpLERKS4_@plt>
  406a1e:	48 8d 45 80          	lea    -0x80(%rbp),%rax
  406a22:	48 89 c7             	mov    %rax,%rdi
  406a25:	e8 1c a8 00 00       	callq  411246 <_ZN9__gnu_cxx17__normal_iteratorIPKcNSt7__cxx1112basic_stringIcSt11char_traitsIcESaIcEEEEppEv>
  406a2a:	eb a6                	jmp    4069d2 <_ZN6jsonxx12_GLOBAL__N_13xml10escape_tagERKNSt7__cxx1112basic_stringIcSt11char_traitsIcESaIcEEEj+0x1d2>
  406a2c:	48 89 c3             	mov    %rax,%rbx
  406a2f:	48 8d 45 c0          	lea    -0x40(%rbp),%rax
  406a33:	48 89 c7             	mov    %rax,%rdi
  406a36:	e8 f5 cd ff ff       	callq  403830 <_ZNSt7__cxx1112basic_stringIcSt11char_traitsIcESaIcEED1Ev@plt>
  406a3b:	eb 03                	jmp    406a40 <_ZN6jsonxx12_GLOBAL__N_13xml10escape_tagERKNSt7__cxx1112basic_stringIcSt11char_traitsIcESaIcEEEj+0x240>
  406a3d:	48 89 c3             	mov    %rax,%rbx
  406a40:	48 8d 45 a0          	lea    -0x60(%rbp),%rax
  406a44:	48 89 c7             	mov    %rax,%rdi
  406a47:	e8 e4 cd ff ff       	callq  403830 <_ZNSt7__cxx1112basic_stringIcSt11char_traitsIcESaIcEED1Ev@plt>
  406a4c:	48 89 d8             	mov    %rbx,%rax
  406a4f:	48 89 c7             	mov    %rax,%rdi
  406a52:	e8 69 cd ff ff       	callq  4037c0 <_Unwind_Resume@plt>
  406a57:	48 89 c3             	mov    %rax,%rbx
  406a5a:	48 8b 85 68 ff ff ff 	mov    -0x98(%rbp),%rax
  406a61:	48 89 c7             	mov    %rax,%rdi
  406a64:	e8 c7 cd ff ff       	callq  403830 <_ZNSt7__cxx1112basic_stringIcSt11char_traitsIcESaIcEED1Ev@plt>
  406a69:	48 89 d8             	mov    %rbx,%rax
  406a6c:	48 89 c7             	mov    %rax,%rdi
  406a6f:	e8 4c cd ff ff       	callq  4037c0 <_Unwind_Resume@plt>
  406a74:	90                   	nop
  406a75:	48 8b 85 68 ff ff ff 	mov    -0x98(%rbp),%rax
  406a7c:	48 8b 4d e8          	mov    -0x18(%rbp),%rcx
  406a80:	64 48 33 0c 25 28 00 	xor    %fs:0x28,%rcx
  406a87:	00 00 
  406a89:	74 05                	je     406a90 <_ZN6jsonxx12_GLOBAL__N_13xml10escape_tagERKNSt7__cxx1112basic_stringIcSt11char_traitsIcESaIcEEEj+0x290>
  406a8b:	e8 10 cb ff ff       	callq  4035a0 <__stack_chk_fail@plt>
  406a90:	48 81 c4 a0 00 00 00 	add    $0xa0,%rsp
  406a97:	5b                   	pop    %rbx
  406a98:	41 5c                	pop    %r12
  406a9a:	5d                   	pop    %rbp
  406a9b:	c3                   	retq   

0000000000406a9c <_ZN6jsonxx12_GLOBAL__N_13xml8open_tagEjcRKNSt7__cxx1112basic_stringIcSt11char_traitsIcESaIcEEES9_S9_>:
  406a9c:	55                   	push   %rbp
  406a9d:	48 89 e5             	mov    %rsp,%rbp
  406aa0:	53                   	push   %rbx
  406aa1:	48 81 ec b8 05 00 00 	sub    $0x5b8,%rsp
  406aa8:	48 89 bd 68 fa ff ff 	mov    %rdi,-0x598(%rbp)
  406aaf:	89 b5 64 fa ff ff    	mov    %esi,-0x59c(%rbp)
  406ab5:	89 d0                	mov    %edx,%eax
  406ab7:	48 89 8d 58 fa ff ff 	mov    %rcx,-0x5a8(%rbp)
  406abe:	4c 89 85 50 fa ff ff 	mov    %r8,-0x5b0(%rbp)
  406ac5:	4c 89 8d 48 fa ff ff 	mov    %r9,-0x5b8(%rbp)
  406acc:	88 85 60 fa ff ff    	mov    %al,-0x5a0(%rbp)
  406ad2:	64 48 8b 04 25 28 00 	mov    %fs:0x28,%rax
  406ad9:	00 00 
  406adb:	48 89 45 e8          	mov    %rax,-0x18(%rbp)
  406adf:	31 c0                	xor    %eax,%eax
  406ae1:	48 8d 85 80 fa ff ff 	lea    -0x580(%rbp),%rax
  406ae8:	48 89 c7             	mov    %rax,%rdi
  406aeb:	e8 00 cb ff ff       	callq  4035f0 <_ZNSt7__cxx1112basic_stringIcSt11char_traitsIcESaIcEEC1Ev@plt>
  406af0:	8b 85 64 fa ff ff    	mov    -0x59c(%rbp),%eax
  406af6:	83 f8 02             	cmp    $0x2,%eax
  406af9:	74 36                	je     406b31 <_ZN6jsonxx12_GLOBAL__N_13xml8open_tagEjcRKNSt7__cxx1112basic_stringIcSt11char_traitsIcESaIcEEES9_S9_+0x95>
  406afb:	83 f8 02             	cmp    $0x2,%eax
  406afe:	77 0b                	ja     406b0b <_ZN6jsonxx12_GLOBAL__N_13xml8open_tagEjcRKNSt7__cxx1112basic_stringIcSt11char_traitsIcESaIcEEES9_S9_+0x6f>
  406b00:	83 f8 01             	cmp    $0x1,%eax
  406b03:	0f 84 85 05 00 00    	je     40708e <_ZN6jsonxx12_GLOBAL__N_13xml8open_tagEjcRKNSt7__cxx1112basic_stringIcSt11char_traitsIcESaIcEEES9_S9_+0x5f2>
  406b09:	eb 12                	jmp    406b1d <_ZN6jsonxx12_GLOBAL__N_13xml8open_tagEjcRKNSt7__cxx1112basic_stringIcSt11char_traitsIcESaIcEEES9_S9_+0x81>
  406b0b:	83 f8 03             	cmp    $0x3,%eax
  406b0e:	0f 84 45 02 00 00    	je     406d59 <_ZN6jsonxx12_GLOBAL__N_13xml8open_tagEjcRKNSt7__cxx1112basic_stringIcSt11char_traitsIcESaIcEEES9_S9_+0x2bd>
  406b14:	83 f8 04             	cmp    $0x4,%eax
  406b17:	0f 84 3e 08 00 00    	je     40735b <_ZN6jsonxx12_GLOBAL__N_13xml8open_tagEjcRKNSt7__cxx1112basic_stringIcSt11char_traitsIcESaIcEEES9_S9_+0x8bf>
  406b1d:	48 8b 85 68 fa ff ff 	mov    -0x598(%rbp),%rax
  406b24:	48 89 c7             	mov    %rax,%rdi
  406b27:	e8 c4 ca ff ff       	callq  4035f0 <_ZNSt7__cxx1112basic_stringIcSt11char_traitsIcESaIcEEC1Ev@plt>
  406b2c:	e9 e4 0a 00 00       	jmpq   407615 <_ZN6jsonxx12_GLOBAL__N_13xml8open_tagEjcRKNSt7__cxx1112basic_stringIcSt11char_traitsIcESaIcEEES9_S9_+0xb79>
  406b31:	48 8b 85 58 fa ff ff 	mov    -0x5a8(%rbp),%rax
  406b38:	48 89 c7             	mov    %rax,%rdi
  406b3b:	e8 40 ca ff ff       	callq  403580 <_ZNKSt7__cxx1112basic_stringIcSt11char_traitsIcESaIcEE5emptyEv@plt>
  406b40:	84 c0                	test   %al,%al
  406b42:	0f 84 c4 00 00 00    	je     406c0c <_ZN6jsonxx12_GLOBAL__N_13xml8open_tagEjcRKNSt7__cxx1112basic_stringIcSt11char_traitsIcESaIcEEES9_S9_+0x170>
  406b48:	0f be 9d 60 fa ff ff 	movsbl -0x5a0(%rbp),%ebx
  406b4f:	48 8d 85 7f fa ff ff 	lea    -0x581(%rbp),%rax
  406b56:	48 89 c7             	mov    %rax,%rdi
  406b59:	e8 22 ce ff ff       	callq  403980 <_ZNSaIcEC1Ev@plt>
  406b5e:	48 8d 95 7f fa ff ff 	lea    -0x581(%rbp),%rdx
  406b65:	48 8d 85 a0 fa ff ff 	lea    -0x560(%rbp),%rax
  406b6c:	be 5a ca 41 00       	mov    $0x41ca5a,%esi
  406b71:	48 89 c7             	mov    %rax,%rdi
  406b74:	e8 37 cd ff ff       	callq  4038b0 <_ZNSt7__cxx1112basic_stringIcSt11char_traitsIcESaIcEEC1EPKcRKS3_@plt>
  406b79:	48 8d 85 c0 fa ff ff 	lea    -0x540(%rbp),%rax
  406b80:	48 8d 8d a0 fa ff ff 	lea    -0x560(%rbp),%rcx
  406b87:	89 da                	mov    %ebx,%edx
  406b89:	48 89 ce             	mov    %rcx,%rsi
  406b8c:	48 89 c7             	mov    %rax,%rdi
  406b8f:	e8 a7 a8 00 00       	callq  41143b <_ZStplIcSt11char_traitsIcESaIcEENSt7__cxx1112basic_stringIT_T0_T1_EEOS8_S5_>
  406b94:	48 8d 85 e0 fa ff ff 	lea    -0x520(%rbp),%rax
  406b9b:	48 8d 8d c0 fa ff ff 	lea    -0x540(%rbp),%rcx
  406ba2:	ba 22 00 00 00       	mov    $0x22,%edx
  406ba7:	48 89 ce             	mov    %rcx,%rsi
  406baa:	48 89 c7             	mov    %rax,%rdi
  406bad:	e8 89 a8 00 00       	callq  41143b <_ZStplIcSt11char_traitsIcESaIcEENSt7__cxx1112basic_stringIT_T0_T1_EEOS8_S5_>
  406bb2:	48 8d 95 e0 fa ff ff 	lea    -0x520(%rbp),%rdx
  406bb9:	48 8d 85 80 fa ff ff 	lea    -0x580(%rbp),%rax
  406bc0:	48 89 d6             	mov    %rdx,%rsi
  406bc3:	48 89 c7             	mov    %rax,%rdi
  406bc6:	e8 35 cb ff ff       	callq  403700 <_ZNSt7__cxx1112basic_stringIcSt11char_traitsIcESaIcEEaSEOS4_@plt>
  406bcb:	48 8d 85 e0 fa ff ff 	lea    -0x520(%rbp),%rax
  406bd2:	48 89 c7             	mov    %rax,%rdi
  406bd5:	e8 56 cc ff ff       	callq  403830 <_ZNSt7__cxx1112basic_stringIcSt11char_traitsIcESaIcEED1Ev@plt>
  406bda:	48 8d 85 c0 fa ff ff 	lea    -0x540(%rbp),%rax
  406be1:	48 89 c7             	mov    %rax,%rdi
  406be4:	e8 47 cc ff ff       	callq  403830 <_ZNSt7__cxx1112basic_stringIcSt11char_traitsIcESaIcEED1Ev@plt>
  406be9:	48 8d 85 a0 fa ff ff 	lea    -0x560(%rbp),%rax
  406bf0:	48 89 c7             	mov    %rax,%rdi
  406bf3:	e8 38 cc ff ff       	callq  403830 <_ZNSt7__cxx1112basic_stringIcSt11char_traitsIcESaIcEED1Ev@plt>
  406bf8:	48 8d 85 7f fa ff ff 	lea    -0x581(%rbp),%rax
  406bff:	48 89 c7             	mov    %rax,%rdi
  406c02:	e8 29 cf ff ff       	callq  403b30 <_ZNSaIcED1Ev@plt>
  406c07:	e9 5f 09 00 00       	jmpq   40756b <_ZN6jsonxx12_GLOBAL__N_13xml8open_tagEjcRKNSt7__cxx1112basic_stringIcSt11char_traitsIcESaIcEEES9_S9_+0xacf>
  406c0c:	48 8d 85 60 fb ff ff 	lea    -0x4a0(%rbp),%rax
  406c13:	48 8b 8d 58 fa ff ff 	mov    -0x5a8(%rbp),%rcx
  406c1a:	ba 00 00 00 00       	mov    $0x0,%edx
  406c1f:	48 89 ce             	mov    %rcx,%rsi
  406c22:	48 89 c7             	mov    %rax,%rdi
  406c25:	e8 84 e9 ff ff       	callq  4055ae <_ZN6jsonxx12_GLOBAL__N_113escape_stringERKNSt7__cxx1112basic_stringIcSt11char_traitsIcESaIcEEEb>
  406c2a:	0f be 9d 60 fa ff ff 	movsbl -0x5a0(%rbp),%ebx
  406c31:	48 8d 85 7f fa ff ff 	lea    -0x581(%rbp),%rax
  406c38:	48 89 c7             	mov    %rax,%rdi
  406c3b:	e8 40 cd ff ff       	callq  403980 <_ZNSaIcEC1Ev@plt>
  406c40:	48 8d 95 7f fa ff ff 	lea    -0x581(%rbp),%rdx
  406c47:	48 8d 85 00 fb ff ff 	lea    -0x500(%rbp),%rax
  406c4e:	be 5a ca 41 00       	mov    $0x41ca5a,%esi
  406c53:	48 89 c7             	mov    %rax,%rdi
  406c56:	e8 55 cc ff ff       	callq  4038b0 <_ZNSt7__cxx1112basic_stringIcSt11char_traitsIcESaIcEEC1EPKcRKS3_@plt>
  406c5b:	48 8d 85 20 fb ff ff 	lea    -0x4e0(%rbp),%rax
  406c62:	48 8d 8d 00 fb ff ff 	lea    -0x500(%rbp),%rcx
  406c69:	89 da                	mov    %ebx,%edx
  406c6b:	48 89 ce             	mov    %rcx,%rsi
  406c6e:	48 89 c7             	mov    %rax,%rdi
  406c71:	e8 c5 a7 00 00       	callq  41143b <_ZStplIcSt11char_traitsIcESaIcEENSt7__cxx1112basic_stringIT_T0_T1_EEOS8_S5_>
  406c76:	48 8d 85 40 fb ff ff 	lea    -0x4c0(%rbp),%rax
  406c7d:	48 8d 8d 20 fb ff ff 	lea    -0x4e0(%rbp),%rcx
  406c84:	ba 3a 00 00 00       	mov    $0x3a,%edx
  406c89:	48 89 ce             	mov    %rcx,%rsi
  406c8c:	48 89 c7             	mov    %rax,%rdi
  406c8f:	e8 a7 a7 00 00       	callq  41143b <_ZStplIcSt11char_traitsIcESaIcEENSt7__cxx1112basic_stringIT_T0_T1_EEOS8_S5_>
  406c94:	48 8d 85 80 fb ff ff 	lea    -0x480(%rbp),%rax
  406c9b:	48 8d 95 60 fb ff ff 	lea    -0x4a0(%rbp),%rdx
  406ca2:	48 8d 8d 40 fb ff ff 	lea    -0x4c0(%rbp),%rcx
  406ca9:	48 89 ce             	mov    %rcx,%rsi
  406cac:	48 89 c7             	mov    %rax,%rdi
  406caf:	e8 2c a1 00 00       	callq  410de0 <_ZStplIcSt11char_traitsIcESaIcEENSt7__cxx1112basic_stringIT_T0_T1_EEOS8_S9_>
  406cb4:	48 8d 85 a0 fb ff ff 	lea    -0x460(%rbp),%rax
  406cbb:	48 8d 8d 80 fb ff ff 	lea    -0x480(%rbp),%rcx
  406cc2:	ba 22 00 00 00       	mov    $0x22,%edx
  406cc7:	48 89 ce             	mov    %rcx,%rsi
  406cca:	48 89 c7             	mov    %rax,%rdi
  406ccd:	e8 69 a7 00 00       	callq  41143b <_ZStplIcSt11char_traitsIcESaIcEENSt7__cxx1112basic_stringIT_T0_T1_EEOS8_S5_>
  406cd2:	48 8d 95 a0 fb ff ff 	lea    -0x460(%rbp),%rdx
  406cd9:	48 8d 85 80 fa ff ff 	lea    -0x580(%rbp),%rax
  406ce0:	48 89 d6             	mov    %rdx,%rsi
  406ce3:	48 89 c7             	mov    %rax,%rdi
  406ce6:	e8 15 ca ff ff       	callq  403700 <_ZNSt7__cxx1112basic_stringIcSt11char_traitsIcESaIcEEaSEOS4_@plt>
  406ceb:	48 8d 85 a0 fb ff ff 	lea    -0x460(%rbp),%rax
  406cf2:	48 89 c7             	mov    %rax,%rdi
  406cf5:	e8 36 cb ff ff       	callq  403830 <_ZNSt7__cxx1112basic_stringIcSt11char_traitsIcESaIcEED1Ev@plt>
  406cfa:	48 8d 85 80 fb ff ff 	lea    -0x480(%rbp),%rax
  406d01:	48 89 c7             	mov    %rax,%rdi
  406d04:	e8 27 cb ff ff       	callq  403830 <_ZNSt7__cxx1112basic_stringIcSt11char_traitsIcESaIcEED1Ev@plt>
  406d09:	48 8d 85 40 fb ff ff 	lea    -0x4c0(%rbp),%rax
  406d10:	48 89 c7             	mov    %rax,%rdi
  406d13:	e8 18 cb ff ff       	callq  403830 <_ZNSt7__cxx1112basic_stringIcSt11char_traitsIcESaIcEED1Ev@plt>
  406d18:	48 8d 85 20 fb ff ff 	lea    -0x4e0(%rbp),%rax
  406d1f:	48 89 c7             	mov    %rax,%rdi
  406d22:	e8 09 cb ff ff       	callq  403830 <_ZNSt7__cxx1112basic_stringIcSt11char_traitsIcESaIcEED1Ev@plt>
  406d27:	48 8d 85 00 fb ff ff 	lea    -0x500(%rbp),%rax
  406d2e:	48 89 c7             	mov    %rax,%rdi
  406d31:	e8 fa ca ff ff       	callq  403830 <_ZNSt7__cxx1112basic_stringIcSt11char_traitsIcESaIcEED1Ev@plt>
  406d36:	48 8d 85 7f fa ff ff 	lea    -0x581(%rbp),%rax
  406d3d:	48 89 c7             	mov    %rax,%rdi
  406d40:	e8 eb cd ff ff       	callq  403b30 <_ZNSaIcED1Ev@plt>
  406d45:	48 8d 85 60 fb ff ff 	lea    -0x4a0(%rbp),%rax
  406d4c:	48 89 c7             	mov    %rax,%rdi
  406d4f:	e8 dc ca ff ff       	callq  403830 <_ZNSt7__cxx1112basic_stringIcSt11char_traitsIcESaIcEED1Ev@plt>
  406d54:	e9 12 08 00 00       	jmpq   40756b <_ZN6jsonxx12_GLOBAL__N_13xml8open_tagEjcRKNSt7__cxx1112basic_stringIcSt11char_traitsIcESaIcEEES9_S9_+0xacf>
  406d59:	48 8b 85 58 fa ff ff 	mov    -0x5a8(%rbp),%rax
  406d60:	48 89 c7             	mov    %rax,%rdi
  406d63:	e8 18 c8 ff ff       	callq  403580 <_ZNKSt7__cxx1112basic_stringIcSt11char_traitsIcESaIcEE5emptyEv@plt>
  406d68:	84 c0                	test   %al,%al
  406d6a:	0f 84 c4 00 00 00    	je     406e34 <_ZN6jsonxx12_GLOBAL__N_13xml8open_tagEjcRKNSt7__cxx1112basic_stringIcSt11char_traitsIcESaIcEEES9_S9_+0x398>
  406d70:	0f be 9d 60 fa ff ff 	movsbl -0x5a0(%rbp),%ebx
  406d77:	48 8d 85 7f fa ff ff 	lea    -0x581(%rbp),%rax
  406d7e:	48 89 c7             	mov    %rax,%rdi
  406d81:	e8 fa cb ff ff       	callq  403980 <_ZNSaIcEC1Ev@plt>
  406d86:	48 8d 95 7f fa ff ff 	lea    -0x581(%rbp),%rdx
  406d8d:	48 8d 85 c0 fb ff ff 	lea    -0x440(%rbp),%rax
  406d94:	be 5a ca 41 00       	mov    $0x41ca5a,%esi
  406d99:	48 89 c7             	mov    %rax,%rdi
  406d9c:	e8 0f cb ff ff       	callq  4038b0 <_ZNSt7__cxx1112basic_stringIcSt11char_traitsIcESaIcEEC1EPKcRKS3_@plt>
  406da1:	48 8d 85 e0 fb ff ff 	lea    -0x420(%rbp),%rax
  406da8:	48 8d 8d c0 fb ff ff 	lea    -0x440(%rbp),%rcx
  406daf:	89 da                	mov    %ebx,%edx
  406db1:	48 89 ce             	mov    %rcx,%rsi
  406db4:	48 89 c7             	mov    %rax,%rdi
  406db7:	e8 7f a6 00 00       	callq  41143b <_ZStplIcSt11char_traitsIcESaIcEENSt7__cxx1112basic_stringIT_T0_T1_EEOS8_S5_>
  406dbc:	48 8d 85 00 fc ff ff 	lea    -0x400(%rbp),%rax
  406dc3:	48 8d 8d e0 fb ff ff 	lea    -0x420(%rbp),%rcx
  406dca:	ba 22 00 00 00       	mov    $0x22,%edx
